
start.o:     file format elf32-littlearm


Disassembly of section .vectors:

00000000 <_start>:
   0:	eafffffe 	b	4c <reset>
   4:	e59ff014 	ldr	pc, [pc, #20]	; 20 <_undefined_instruction>
   8:	e59ff014 	ldr	pc, [pc, #20]	; 24 <_software_interrupt>
   c:	e59ff014 	ldr	pc, [pc, #20]	; 28 <_prefetch_abort>
  10:	e59ff014 	ldr	pc, [pc, #20]	; 2c <_data_abort>
  14:	e59ff014 	ldr	pc, [pc, #20]	; 30 <_not_used>
  18:	e59ff014 	ldr	pc, [pc, #20]	; 34 <_irq>
  1c:	e59ff014 	ldr	pc, [pc, #20]	; 38 <_fiq>

00000020 <_undefined_instruction>:
  20:	0000003c 	.word	0x0000003c

00000024 <_software_interrupt>:
  24:	0000003c 	.word	0x0000003c

00000028 <_prefetch_abort>:
  28:	0000003c 	.word	0x0000003c

0000002c <_data_abort>:
  2c:	0000003c 	.word	0x0000003c

00000030 <_not_used>:
  30:	0000003c 	.word	0x0000003c

00000034 <_irq>:
  34:	0000003c 	.word	0x0000003c

00000038 <_fiq>:
  38:	0000003c 	.word	0x0000003c

0000003c <data_abort>:
  3c:	ebfffffe 	bl	3c <data_abort>
  40:	deadbeef 	.word	0xdeadbeef
  44:	baadc0de 	.word	0xbaadc0de
  48:	baadcafe 	.word	0xbaadcafe

0000004c <reset>:
  4c:	e10f0000 	mrs	r0, CPSR
  50:	e200101f 	and	r1, r0, #31
  54:	e331001a 	teq	r1, #26
  58:	13c0001f 	bicne	r0, r0, #31
  5c:	13800013 	orrne	r0, r0, #19
  60:	e38000c0 	orr	r0, r0, #192	; 0xc0
  64:	e129f000 	msr	CPSR_fc, r0
  68:	ee110f10 	mrc	15, 0, r0, cr1, cr0, {0}
  6c:	e3c00a02 	bic	r0, r0, #8192	; 0x2000
  70:	ee010f10 	mcr	15, 0, r0, cr1, cr0, {0}
  74:	e59f008c 	ldr	r0, [pc, #140]	; 108 <_main+0x1c>
  78:	ee0c0f10 	mcr	15, 0, r0, cr12, cr0, {0}
  7c:	ebfffffe 	bl	98 <cpu_init_cp15>
  80:	ebfffffe 	bl	ec <_main>

00000084 <c_runtime_cpu_setup>:
  84:	ee070f15 	mcr	15, 0, r0, cr7, cr5, {0}
  88:	ee070f9a 	mcr	15, 0, r0, cr7, cr10, {4}
  8c:	ee070f95 	mcr	15, 0, r0, cr7, cr5, {4}
  90:	e12fff1e 	bx	lr

00000094 <save_boot_params>:
  94:	eafffffe 	b	4c <reset>

00000098 <cpu_init_cp15>:
  98:	e3a00000 	mov	r0, #0
  9c:	ee080f17 	mcr	15, 0, r0, cr8, cr7, {0}
  a0:	ee070f15 	mcr	15, 0, r0, cr7, cr5, {0}
  a4:	ee070fd5 	mcr	15, 0, r0, cr7, cr5, {6}
  a8:	ee070f9a 	mcr	15, 0, r0, cr7, cr10, {4}
  ac:	ee070f95 	mcr	15, 0, r0, cr7, cr5, {4}
  b0:	ee110f10 	mrc	15, 0, r0, cr1, cr0, {0}
  b4:	e3c00a02 	bic	r0, r0, #8192	; 0x2000
  b8:	e3c00007 	bic	r0, r0, #7
  bc:	e3800002 	orr	r0, r0, #2
  c0:	e3800b02 	orr	r0, r0, #2048	; 0x800
  c4:	e3800a01 	orr	r0, r0, #4096	; 0x1000
  c8:	ee010f10 	mcr	15, 0, r0, cr1, cr0, {0}
  cc:	e1a0500e 	mov	r5, lr
  d0:	ee101f10 	mrc	15, 0, r1, cr0, cr0, {0}
  d4:	e1a03a21 	lsr	r3, r1, #20
  d8:	e203300f 	and	r3, r3, #15
  dc:	e201400f 	and	r4, r1, #15
  e0:	e1a02203 	lsl	r2, r3, #4
  e4:	e1842002 	orr	r2, r4, r2
  e8:	e1a0f005 	mov	pc, r5

000000ec <_main>:
  ec:	e3e000bf 	mvn	r0, #191	; 0xbf
  f0:	e3e000ff 	mvn	r0, #255	; 0xff
  f4:	e3c00007 	bic	r0, r0, #7
  f8:	e1a0d000 	mov	sp, r0
  fc:	e1a09000 	mov	r9, r0
 100:	e3a00000 	mov	r0, #0
 104:	ebfffffe 	bl	0 <board_init_f>
 108:	00000000 	.word	0x00000000
