
hwlibs/alt_clock_manager.o:     file format elf32-littlearm


Disassembly of section .text.alt_clk_mgr_wait:

00000000 <alt_clk_mgr_wait>:
   0:	6803      	ldr	r3, [r0, #0]
   2:	3901      	subs	r1, #1
   4:	d1fc      	bne.n	0 <alt_clk_mgr_wait>
   6:	4770      	bx	lr

Disassembly of section .text.alt_clk_pllcounter_write:

00000000 <alt_clk_pllcounter_write>:
   0:	b573      	push	{r0, r1, r4, r5, r6, lr}
   2:	9e06      	ldr	r6, [sp, #24]
   4:	9c07      	ldr	r4, [sp, #28]
   6:	6805      	ldr	r5, [r0, #0]
   8:	fa06 f404 	lsl.w	r4, r6, r4
   c:	4325      	orrs	r5, r4
   e:	6005      	str	r5, [r0, #0]
  10:	680d      	ldr	r5, [r1, #0]
  12:	9501      	str	r5, [sp, #4]
  14:	9d01      	ldr	r5, [sp, #4]
  16:	4235      	tst	r5, r6
  18:	d0fa      	beq.n	10 <alt_clk_pllcounter_write+0x10>
  1a:	6013      	str	r3, [r2, #0]
  1c:	6803      	ldr	r3, [r0, #0]
  1e:	ea23 0404 	bic.w	r4, r3, r4
  22:	6004      	str	r4, [r0, #0]
  24:	b002      	add	sp, #8
  26:	bd70      	pop	{r4, r5, r6, pc}

Disassembly of section .text.alt_clkmgr_is_val_modulo_n:

00000000 <alt_clkmgr_is_val_modulo_n>:
   0:	b508      	push	{r3, lr}
   2:	2901      	cmp	r1, #1
   4:	460b      	mov	r3, r1
   6:	d004      	beq.n	12 <alt_clkmgr_is_val_modulo_n+0x12>
   8:	2902      	cmp	r1, #2
   a:	d104      	bne.n	16 <alt_clkmgr_is_val_modulo_n+0x16>
   c:	43c3      	mvns	r3, r0
   e:	f003 0301 	and.w	r3, r3, #1
  12:	4618      	mov	r0, r3
  14:	bd08      	pop	{r3, pc}
  16:	2904      	cmp	r1, #4
  18:	d105      	bne.n	26 <alt_clkmgr_is_val_modulo_n+0x26>
  1a:	f010 0f03 	tst.w	r0, #3
  1e:	bf0c      	ite	eq
  20:	2301      	moveq	r3, #1
  22:	2300      	movne	r3, #0
  24:	e7f5      	b.n	12 <alt_clkmgr_is_val_modulo_n+0x12>
  26:	f7ff fffe 	bl	0 <__aeabi_uidivmod>
  2a:	fab1 f381 	clz	r3, r1
  2e:	095b      	lsrs	r3, r3, #5
  30:	e7ef      	b.n	12 <alt_clkmgr_is_val_modulo_n+0x12>

Disassembly of section .text.alt_clk_pll_is_bypassed.part.0:

00000000 <alt_clk_pll_is_bypassed.part.0>:
   0:	4b04      	ldr	r3, [pc, #16]	; (14 <alt_clk_pll_is_bypassed.part.0+0x14>)
   2:	681a      	ldr	r2, [r3, #0]
   4:	07d2      	lsls	r2, r2, #31
   6:	bf5a      	itte	pl
   8:	6858      	ldrpl	r0, [r3, #4]
   a:	f3c0 00c0 	ubfxpl	r0, r0, #3, #1
   e:	2001      	movmi	r0, #1
  10:	4770      	bx	lr
  12:	bf00      	nop
  14:	ffd04000 	.word	0xffd04000

Disassembly of section .text.alt_clk_pll_source_get.part.0:

00000000 <alt_clk_pll_source_get.part.0>:
   0:	4b07      	ldr	r3, [pc, #28]	; (20 <alt_clk_pll_source_get.part.0+0x20>)
   2:	f8d3 30c0 	ldr.w	r3, [r3, #192]	; 0xc0
   6:	f413 0f40 	tst.w	r3, #12582912	; 0xc00000
   a:	f3c3 5081 	ubfx	r0, r3, #22, #2
   e:	d005      	beq.n	1c <alt_clk_pll_source_get.part.0+0x1c>
  10:	2801      	cmp	r0, #1
  12:	d003      	beq.n	1c <alt_clk_pll_source_get.part.0+0x1c>
  14:	2802      	cmp	r0, #2
  16:	bf14      	ite	ne
  18:	204b      	movne	r0, #75	; 0x4b
  1a:	2003      	moveq	r0, #3
  1c:	4770      	bx	lr
  1e:	bf00      	nop
  20:	ffd04000 	.word	0xffd04000

Disassembly of section .text.alt_clk_pll_lock_wait.constprop.0:

00000000 <alt_clk_pll_lock_wait.constprop.0>:
   0:	4a06      	ldr	r2, [pc, #24]	; (1c <alt_clk_pll_lock_wait.constprop.0+0x1c>)
   2:	f240 33e9 	movw	r3, #1001	; 0x3e9
   6:	6891      	ldr	r1, [r2, #8]
   8:	0649      	lsls	r1, r1, #25
   a:	d404      	bmi.n	16 <alt_clk_pll_lock_wait.constprop.0+0x16>
   c:	3b01      	subs	r3, #1
   e:	d1fa      	bne.n	6 <alt_clk_pll_lock_wait.constprop.0+0x6>
  10:	f06f 000b 	mvn.w	r0, #11
  14:	4770      	bx	lr
  16:	2000      	movs	r0, #0
  18:	4770      	bx	lr
  1a:	bf00      	nop
  1c:	ffd04000 	.word	0xffd04000

Disassembly of section .text.alt_clk_plls_settle_wait:

00000000 <alt_clk_plls_settle_wait>:
   0:	4b06      	ldr	r3, [pc, #24]	; (1c <alt_clk_plls_settle_wait+0x1c>)
   2:	2032      	movs	r0, #50	; 0x32
   4:	695a      	ldr	r2, [r3, #20]
   6:	07d2      	lsls	r2, r2, #31
   8:	d502      	bpl.n	10 <alt_clk_plls_settle_wait+0x10>
   a:	3801      	subs	r0, #1
   c:	d2fa      	bcs.n	4 <alt_clk_plls_settle_wait+0x4>
   e:	4770      	bx	lr
  10:	2800      	cmp	r0, #0
  12:	bfcc      	ite	gt
  14:	2000      	movgt	r0, #0
  16:	2001      	movle	r0, #1
  18:	4240      	negs	r0, r0
  1a:	4770      	bx	lr
  1c:	ffd04000 	.word	0xffd04000

Disassembly of section .text.alt_clk_lock_status_clear:

00000000 <alt_clk_lock_status_clear>:
   0:	f030 033f 	bics.w	r3, r0, #63	; 0x3f
   4:	bf01      	itttt	eq
   6:	4904      	ldreq	r1, [pc, #16]	; (18 <alt_clk_lock_status_clear+0x18>)
   8:	688a      	ldreq	r2, [r1, #8]
   a:	4310      	orreq	r0, r2
   c:	6088      	streq	r0, [r1, #8]
   e:	bf0c      	ite	eq
  10:	4618      	moveq	r0, r3
  12:	f06f 0008 	mvnne.w	r0, #8
  16:	4770      	bx	lr
  18:	ffd04000 	.word	0xffd04000

Disassembly of section .text.alt_clk_lock_status_get:

00000000 <alt_clk_lock_status_get>:
   0:	4b02      	ldr	r3, [pc, #8]	; (c <alt_clk_lock_status_get+0xc>)
   2:	6898      	ldr	r0, [r3, #8]
   4:	f3c0 0008 	ubfx	r0, r0, #0, #9
   8:	4770      	bx	lr
   a:	bf00      	nop
   c:	ffd04000 	.word	0xffd04000

Disassembly of section .text.alt_clk_pll_is_locked:

00000000 <alt_clk_pll_is_locked>:
   0:	2809      	cmp	r0, #9
   2:	d104      	bne.n	e <alt_clk_pll_is_locked+0xe>
   4:	4b0a      	ldr	r3, [pc, #40]	; (30 <alt_clk_pll_is_locked+0x30>)
   6:	6898      	ldr	r0, [r3, #8]
   8:	f3c0 1080 	ubfx	r0, r0, #6, #1
   c:	4770      	bx	lr
   e:	280a      	cmp	r0, #10
  10:	d104      	bne.n	1c <alt_clk_pll_is_locked+0x1c>
  12:	4b07      	ldr	r3, [pc, #28]	; (30 <alt_clk_pll_is_locked+0x30>)
  14:	6898      	ldr	r0, [r3, #8]
  16:	f3c0 10c0 	ubfx	r0, r0, #7, #1
  1a:	4770      	bx	lr
  1c:	280b      	cmp	r0, #11
  1e:	bf03      	ittte	eq
  20:	4b03      	ldreq	r3, [pc, #12]	; (30 <alt_clk_pll_is_locked+0x30>)
  22:	6898      	ldreq	r0, [r3, #8]
  24:	f3c0 2000 	ubfxeq	r0, r0, #8, #1
  28:	f06f 0008 	mvnne.w	r0, #8
  2c:	4770      	bx	lr
  2e:	bf00      	nop
  30:	ffd04000 	.word	0xffd04000

Disassembly of section .text.alt_clk_safe_mode_clear:

00000000 <alt_clk_safe_mode_clear>:
   0:	4909      	ldr	r1, [pc, #36]	; (28 <alt_clk_safe_mode_clear+0x28>)
   2:	b510      	push	{r4, lr}
   4:	6e0c      	ldr	r4, [r1, #96]	; 0x60
   6:	f024 030c 	bic.w	r3, r4, #12
   a:	660b      	str	r3, [r1, #96]	; 0x60
   c:	f004 040c 	and.w	r4, r4, #12
  10:	680b      	ldr	r3, [r1, #0]
  12:	f043 0301 	orr.w	r3, r3, #1
  16:	600b      	str	r3, [r1, #0]
  18:	f7ff fffe 	bl	0 <alt_clk_safe_mode_clear>
  1c:	6e0b      	ldr	r3, [r1, #96]	; 0x60
  1e:	f023 030c 	bic.w	r3, r3, #12
  22:	4323      	orrs	r3, r4
  24:	660b      	str	r3, [r1, #96]	; 0x60
  26:	bd10      	pop	{r4, pc}
  28:	ffd04000 	.word	0xffd04000

Disassembly of section .text.alt_clk_is_in_safe_mode:

00000000 <alt_clk_is_in_safe_mode>:
   0:	b920      	cbnz	r0, c <alt_clk_is_in_safe_mode+0xc>
   2:	4b09      	ldr	r3, [pc, #36]	; (28 <alt_clk_is_in_safe_mode+0x28>)
   4:	6818      	ldr	r0, [r3, #0]
   6:	f000 0001 	and.w	r0, r0, #1
   a:	4770      	bx	lr
   c:	2801      	cmp	r0, #1
   e:	d109      	bne.n	24 <alt_clk_is_in_safe_mode+0x24>
  10:	4a05      	ldr	r2, [pc, #20]	; (28 <alt_clk_is_in_safe_mode+0x28>)
  12:	6913      	ldr	r3, [r2, #16]
  14:	f013 0001 	ands.w	r0, r3, #1
  18:	d105      	bne.n	26 <alt_clk_is_in_safe_mode+0x26>
  1a:	f013 0002 	ands.w	r0, r3, #2
  1e:	d002      	beq.n	26 <alt_clk_is_in_safe_mode+0x26>
  20:	6810      	ldr	r0, [r2, #0]
  22:	e7f0      	b.n	6 <alt_clk_is_in_safe_mode+0x6>
  24:	2000      	movs	r0, #0
  26:	4770      	bx	lr
  28:	ffd04000 	.word	0xffd04000

Disassembly of section .text.alt_clk_pll_bypass_disable:

00000000 <alt_clk_pll_bypass_disable>:
   0:	b570      	push	{r4, r5, r6, lr}
   2:	4602      	mov	r2, r0
   4:	f7ff fffe 	bl	0 <alt_clk_pll_bypass_disable>
   8:	2801      	cmp	r0, #1
   a:	f040 8083 	bne.w	114 <alt_clk_pll_bypass_disable+0x114>
   e:	2a09      	cmp	r2, #9
  10:	d133      	bne.n	7a <alt_clk_pll_bypass_disable+0x7a>
  12:	4b45      	ldr	r3, [pc, #276]	; (128 <alt_clk_pll_bypass_disable+0x128>)
  14:	6f1a      	ldr	r2, [r3, #112]	; 0x70
  16:	6e1d      	ldr	r5, [r3, #96]	; 0x60
  18:	f015 0304 	ands.w	r3, r5, #4
  1c:	bf1c      	itt	ne
  1e:	43d3      	mvnne	r3, r2
  20:	f003 0301 	andne.w	r3, r3, #1
  24:	f015 0108 	ands.w	r1, r5, #8
  28:	bf1c      	itt	ne
  2a:	f082 0102 	eorne.w	r1, r2, #2
  2e:	f3c1 0140 	ubfxne	r1, r1, #1, #1
  32:	b303      	cbz	r3, 76 <alt_clk_pll_bypass_disable+0x76>
  34:	f025 0204 	bic.w	r2, r5, #4
  38:	b109      	cbz	r1, 3e <alt_clk_pll_bypass_disable+0x3e>
  3a:	f022 0208 	bic.w	r2, r2, #8
  3e:	4c3a      	ldr	r4, [pc, #232]	; (128 <alt_clk_pll_bypass_disable+0x128>)
  40:	4319      	orrs	r1, r3
  42:	bf18      	it	ne
  44:	6622      	strne	r2, [r4, #96]	; 0x60
  46:	6c23      	ldr	r3, [r4, #64]	; 0x40
  48:	f043 7280 	orr.w	r2, r3, #16777216	; 0x1000000
  4c:	f023 7380 	bic.w	r3, r3, #16777216	; 0x1000000
  50:	6422      	str	r2, [r4, #64]	; 0x40
  52:	6423      	str	r3, [r4, #64]	; 0x40
  54:	f7ff fffe 	bl	0 <alt_clk_pll_bypass_disable>
  58:	6863      	ldr	r3, [r4, #4]
  5a:	f023 0301 	bic.w	r3, r3, #1
  5e:	6063      	str	r3, [r4, #4]
  60:	f7ff fffe 	bl	0 <alt_clk_pll_bypass_disable>
  64:	4602      	mov	r2, r0
  66:	b121      	cbz	r1, 72 <alt_clk_pll_bypass_disable+0x72>
  68:	4830      	ldr	r0, [pc, #192]	; (12c <alt_clk_pll_bypass_disable+0x12c>)
  6a:	211e      	movs	r1, #30
  6c:	f7ff fffe 	bl	0 <alt_clk_pll_bypass_disable>
  70:	6625      	str	r5, [r4, #96]	; 0x60
  72:	4610      	mov	r0, r2
  74:	bd70      	pop	{r4, r5, r6, pc}
  76:	462a      	mov	r2, r5
  78:	e7de      	b.n	38 <alt_clk_pll_bypass_disable+0x38>
  7a:	2a0a      	cmp	r2, #10
  7c:	d133      	bne.n	e6 <alt_clk_pll_bypass_disable+0xe6>
  7e:	4b2a      	ldr	r3, [pc, #168]	; (128 <alt_clk_pll_bypass_disable+0x128>)
  80:	6f1a      	ldr	r2, [r3, #112]	; 0x70
  82:	6e1c      	ldr	r4, [r3, #96]	; 0x60
  84:	f014 0304 	ands.w	r3, r4, #4
  88:	bf18      	it	ne
  8a:	f002 0301 	andne.w	r3, r2, #1
  8e:	f014 0108 	ands.w	r1, r4, #8
  92:	d045      	beq.n	120 <alt_clk_pll_bypass_disable+0x120>
  94:	f3c2 0140 	ubfx	r1, r2, #1, #1
  98:	b31b      	cbz	r3, e2 <alt_clk_pll_bypass_disable+0xe2>
  9a:	f024 0204 	bic.w	r2, r4, #4
  9e:	b109      	cbz	r1, a4 <alt_clk_pll_bypass_disable+0xa4>
  a0:	f022 0208 	bic.w	r2, r2, #8
  a4:	4d20      	ldr	r5, [pc, #128]	; (128 <alt_clk_pll_bypass_disable+0x128>)
  a6:	4319      	orrs	r1, r3
  a8:	bf18      	it	ne
  aa:	662a      	strne	r2, [r5, #96]	; 0x60
  ac:	f8d5 6080 	ldr.w	r6, [r5, #128]	; 0x80
  b0:	f046 7380 	orr.w	r3, r6, #16777216	; 0x1000000
  b4:	f8c5 3080 	str.w	r3, [r5, #128]	; 0x80
  b8:	f7ff fffe 	bl	0 <alt_clk_pll_bypass_disable>
  bc:	f026 7680 	bic.w	r6, r6, #16777216	; 0x1000000
  c0:	f8c5 6080 	str.w	r6, [r5, #128]	; 0x80
  c4:	686b      	ldr	r3, [r5, #4]
  c6:	f023 0308 	bic.w	r3, r3, #8
  ca:	606b      	str	r3, [r5, #4]
  cc:	f7ff fffe 	bl	0 <alt_clk_pll_bypass_disable>
  d0:	4602      	mov	r2, r0
  d2:	2900      	cmp	r1, #0
  d4:	d0cd      	beq.n	72 <alt_clk_pll_bypass_disable+0x72>
  d6:	4815      	ldr	r0, [pc, #84]	; (12c <alt_clk_pll_bypass_disable+0x12c>)
  d8:	211e      	movs	r1, #30
  da:	f7ff fffe 	bl	0 <alt_clk_pll_bypass_disable>
  de:	662c      	str	r4, [r5, #96]	; 0x60
  e0:	e7c7      	b.n	72 <alt_clk_pll_bypass_disable+0x72>
  e2:	4622      	mov	r2, r4
  e4:	e7db      	b.n	9e <alt_clk_pll_bypass_disable+0x9e>
  e6:	2a0b      	cmp	r2, #11
  e8:	d117      	bne.n	11a <alt_clk_pll_bypass_disable+0x11a>
  ea:	490f      	ldr	r1, [pc, #60]	; (128 <alt_clk_pll_bypass_disable+0x128>)
  ec:	f8d1 30c0 	ldr.w	r3, [r1, #192]	; 0xc0
  f0:	f043 7280 	orr.w	r2, r3, #16777216	; 0x1000000
  f4:	f023 7380 	bic.w	r3, r3, #16777216	; 0x1000000
  f8:	f8c1 20c0 	str.w	r2, [r1, #192]	; 0xc0
  fc:	f8c1 30c0 	str.w	r3, [r1, #192]	; 0xc0
 100:	f7ff fffe 	bl	0 <alt_clk_pll_bypass_disable>
 104:	684b      	ldr	r3, [r1, #4]
 106:	e8bd 4070 	ldmia.w	sp!, {r4, r5, r6, lr}
 10a:	f023 0304 	bic.w	r3, r3, #4
 10e:	604b      	str	r3, [r1, #4]
 110:	f7ff bffe 	b.w	0 <alt_clk_pll_bypass_disable>
 114:	f04f 32ff 	mov.w	r2, #4294967295
 118:	e7ab      	b.n	72 <alt_clk_pll_bypass_disable+0x72>
 11a:	f06f 0208 	mvn.w	r2, #8
 11e:	e7a8      	b.n	72 <alt_clk_pll_bypass_disable+0x72>
 120:	2b00      	cmp	r3, #0
 122:	d1ba      	bne.n	9a <alt_clk_pll_bypass_disable+0x9a>
 124:	4622      	mov	r2, r4
 126:	e7bd      	b.n	a4 <alt_clk_pll_bypass_disable+0xa4>
 128:	ffd04000 	.word	0xffd04000
 12c:	ffd04060 	.word	0xffd04060

Disassembly of section .text.alt_clk_pll_bypass_enable:

00000000 <alt_clk_pll_bypass_enable>:
   0:	2809      	cmp	r0, #9
   2:	b538      	push	{r3, r4, r5, lr}
   4:	d128      	bne.n	58 <alt_clk_pll_bypass_enable+0x58>
   6:	2900      	cmp	r1, #0
   8:	d161      	bne.n	ce <alt_clk_pll_bypass_enable+0xce>
   a:	4b36      	ldr	r3, [pc, #216]	; (e4 <alt_clk_pll_bypass_enable+0xe4>)
   c:	6f1a      	ldr	r2, [r3, #112]	; 0x70
   e:	6e1c      	ldr	r4, [r3, #96]	; 0x60
  10:	f014 0304 	ands.w	r3, r4, #4
  14:	bf1c      	itt	ne
  16:	43d3      	mvnne	r3, r2
  18:	f003 0301 	andne.w	r3, r3, #1
  1c:	f014 0108 	ands.w	r1, r4, #8
  20:	d058      	beq.n	d4 <alt_clk_pll_bypass_enable+0xd4>
  22:	f082 0102 	eor.w	r1, r2, #2
  26:	f3c1 0140 	ubfx	r1, r1, #1, #1
  2a:	b18b      	cbz	r3, 50 <alt_clk_pll_bypass_enable+0x50>
  2c:	f024 0204 	bic.w	r2, r4, #4
  30:	b109      	cbz	r1, 36 <alt_clk_pll_bypass_enable+0x36>
  32:	f022 0208 	bic.w	r2, r2, #8
  36:	4d2b      	ldr	r5, [pc, #172]	; (e4 <alt_clk_pll_bypass_enable+0xe4>)
  38:	4319      	orrs	r1, r3
  3a:	bf18      	it	ne
  3c:	662a      	strne	r2, [r5, #96]	; 0x60
  3e:	686b      	ldr	r3, [r5, #4]
  40:	f043 0301 	orr.w	r3, r3, #1
  44:	606b      	str	r3, [r5, #4]
  46:	f7ff fffe 	bl	0 <alt_clk_pll_bypass_enable>
  4a:	b919      	cbnz	r1, 54 <alt_clk_pll_bypass_enable+0x54>
  4c:	2000      	movs	r0, #0
  4e:	bd38      	pop	{r3, r4, r5, pc}
  50:	4622      	mov	r2, r4
  52:	e7ed      	b.n	30 <alt_clk_pll_bypass_enable+0x30>
  54:	662c      	str	r4, [r5, #96]	; 0x60
  56:	e7f9      	b.n	4c <alt_clk_pll_bypass_enable+0x4c>
  58:	280a      	cmp	r0, #10
  5a:	d12b      	bne.n	b4 <alt_clk_pll_bypass_enable+0xb4>
  5c:	4b21      	ldr	r3, [pc, #132]	; (e4 <alt_clk_pll_bypass_enable+0xe4>)
  5e:	6f18      	ldr	r0, [r3, #112]	; 0x70
  60:	6e1a      	ldr	r2, [r3, #96]	; 0x60
  62:	f012 0304 	ands.w	r3, r2, #4
  66:	bf18      	it	ne
  68:	f000 0301 	andne.w	r3, r0, #1
  6c:	f012 0408 	ands.w	r4, r2, #8
  70:	d034      	beq.n	dc <alt_clk_pll_bypass_enable+0xdc>
  72:	f3c0 0440 	ubfx	r4, r0, #1, #1
  76:	b1db      	cbz	r3, b0 <alt_clk_pll_bypass_enable+0xb0>
  78:	f022 0004 	bic.w	r0, r2, #4
  7c:	b10c      	cbz	r4, 82 <alt_clk_pll_bypass_enable+0x82>
  7e:	f020 0008 	bic.w	r0, r0, #8
  82:	431c      	orrs	r4, r3
  84:	4b17      	ldr	r3, [pc, #92]	; (e4 <alt_clk_pll_bypass_enable+0xe4>)
  86:	4d17      	ldr	r5, [pc, #92]	; (e4 <alt_clk_pll_bypass_enable+0xe4>)
  88:	bf18      	it	ne
  8a:	6618      	strne	r0, [r3, #96]	; 0x60
  8c:	2900      	cmp	r1, #0
  8e:	f04f 011e 	mov.w	r1, #30
  92:	6858      	ldr	r0, [r3, #4]
  94:	bf14      	ite	ne
  96:	2318      	movne	r3, #24
  98:	2308      	moveq	r3, #8
  9a:	f020 0018 	bic.w	r0, r0, #24
  9e:	4303      	orrs	r3, r0
  a0:	4811      	ldr	r0, [pc, #68]	; (e8 <alt_clk_pll_bypass_enable+0xe8>)
  a2:	606b      	str	r3, [r5, #4]
  a4:	f7ff fffe 	bl	0 <alt_clk_pll_bypass_enable>
  a8:	2c00      	cmp	r4, #0
  aa:	d0cf      	beq.n	4c <alt_clk_pll_bypass_enable+0x4c>
  ac:	662a      	str	r2, [r5, #96]	; 0x60
  ae:	e7cd      	b.n	4c <alt_clk_pll_bypass_enable+0x4c>
  b0:	4610      	mov	r0, r2
  b2:	e7e3      	b.n	7c <alt_clk_pll_bypass_enable+0x7c>
  b4:	280b      	cmp	r0, #11
  b6:	d10a      	bne.n	ce <alt_clk_pll_bypass_enable+0xce>
  b8:	480a      	ldr	r0, [pc, #40]	; (e4 <alt_clk_pll_bypass_enable+0xe4>)
  ba:	2900      	cmp	r1, #0
  bc:	bf14      	ite	ne
  be:	2306      	movne	r3, #6
  c0:	2302      	moveq	r3, #2
  c2:	6842      	ldr	r2, [r0, #4]
  c4:	f022 0206 	bic.w	r2, r2, #6
  c8:	4313      	orrs	r3, r2
  ca:	6043      	str	r3, [r0, #4]
  cc:	e7be      	b.n	4c <alt_clk_pll_bypass_enable+0x4c>
  ce:	f06f 0008 	mvn.w	r0, #8
  d2:	e7bc      	b.n	4e <alt_clk_pll_bypass_enable+0x4e>
  d4:	2b00      	cmp	r3, #0
  d6:	d1a9      	bne.n	2c <alt_clk_pll_bypass_enable+0x2c>
  d8:	4622      	mov	r2, r4
  da:	e7ac      	b.n	36 <alt_clk_pll_bypass_enable+0x36>
  dc:	2b00      	cmp	r3, #0
  de:	d1cb      	bne.n	78 <alt_clk_pll_bypass_enable+0x78>
  e0:	4610      	mov	r0, r2
  e2:	e7ce      	b.n	82 <alt_clk_pll_bypass_enable+0x82>
  e4:	ffd04000 	.word	0xffd04000
  e8:	ffd04060 	.word	0xffd04060

Disassembly of section .text.alt_clk_pll_is_bypassed:

00000000 <alt_clk_pll_is_bypassed>:
   0:	2809      	cmp	r0, #9
   2:	d107      	bne.n	14 <alt_clk_pll_is_bypassed+0x14>
   4:	4b0d      	ldr	r3, [pc, #52]	; (3c <alt_clk_pll_is_bypassed+0x3c>)
   6:	681a      	ldr	r2, [r3, #0]
   8:	07d1      	lsls	r1, r2, #31
   a:	d414      	bmi.n	36 <alt_clk_pll_is_bypassed+0x36>
   c:	6858      	ldr	r0, [r3, #4]
   e:	f000 0001 	and.w	r0, r0, #1
  12:	4770      	bx	lr
  14:	280a      	cmp	r0, #10
  16:	d101      	bne.n	1c <alt_clk_pll_is_bypassed+0x1c>
  18:	f7ff bffe 	b.w	0 <alt_clk_pll_is_bypassed>
  1c:	280b      	cmp	r0, #11
  1e:	d107      	bne.n	30 <alt_clk_pll_is_bypassed+0x30>
  20:	4b06      	ldr	r3, [pc, #24]	; (3c <alt_clk_pll_is_bypassed+0x3c>)
  22:	681a      	ldr	r2, [r3, #0]
  24:	07d2      	lsls	r2, r2, #31
  26:	d406      	bmi.n	36 <alt_clk_pll_is_bypassed+0x36>
  28:	6858      	ldr	r0, [r3, #4]
  2a:	f3c0 0040 	ubfx	r0, r0, #1, #1
  2e:	4770      	bx	lr
  30:	f06f 0008 	mvn.w	r0, #8
  34:	4770      	bx	lr
  36:	2001      	movs	r0, #1
  38:	4770      	bx	lr
  3a:	bf00      	nop
  3c:	ffd04000 	.word	0xffd04000

Disassembly of section .text.alt_clk_pll_source_get:

00000000 <alt_clk_pll_source_get>:
   0:	2809      	cmp	r0, #9
   2:	d013      	beq.n	2c <alt_clk_pll_source_get+0x2c>
   4:	280a      	cmp	r0, #10
   6:	d10d      	bne.n	24 <alt_clk_pll_source_get+0x24>
   8:	4b0a      	ldr	r3, [pc, #40]	; (34 <alt_clk_pll_source_get+0x34>)
   a:	f8d3 3080 	ldr.w	r3, [r3, #128]	; 0x80
   e:	f413 0f40 	tst.w	r3, #12582912	; 0xc00000
  12:	f3c3 5081 	ubfx	r0, r3, #22, #2
  16:	d00c      	beq.n	32 <alt_clk_pll_source_get+0x32>
  18:	2801      	cmp	r0, #1
  1a:	d00a      	beq.n	32 <alt_clk_pll_source_get+0x32>
  1c:	2802      	cmp	r0, #2
  1e:	bf18      	it	ne
  20:	204b      	movne	r0, #75	; 0x4b
  22:	4770      	bx	lr
  24:	280b      	cmp	r0, #11
  26:	d103      	bne.n	30 <alt_clk_pll_source_get+0x30>
  28:	f7ff bffe 	b.w	0 <alt_clk_pll_source_get>
  2c:	2000      	movs	r0, #0
  2e:	4770      	bx	lr
  30:	204b      	movs	r0, #75	; 0x4b
  32:	4770      	bx	lr
  34:	ffd04000 	.word	0xffd04000

Disassembly of section .text.alt_clk_clock_disable:

00000000 <alt_clk_clock_disable>:
   0:	b508      	push	{r3, lr}
   2:	f1a0 0309 	sub.w	r3, r0, #9
   6:	2b37      	cmp	r3, #55	; 0x37
   8:	d81d      	bhi.n	46 <alt_clk_clock_disable+0x46>
   a:	e8df f003 	tbb	[pc, r3]
   e:	1f1f      	.short	0x1f1f
  10:	1c1c1c1f 	.word	0x1c1c1c1f
  14:	1c1c1c1c 	.word	0x1c1c1c1c
  18:	1c1c1c1c 	.word	0x1c1c1c1c
  1c:	30241c2b 	.word	0x30241c2b
  20:	443a1c35 	.word	0x443a1c35
  24:	1c1c3f49 	.word	0x1c1c3f49
  28:	1c1c534e 	.word	0x1c1c534e
  2c:	1c1c1c1c 	.word	0x1c1c1c1c
  30:	8a9a66ba 	.word	0x8a9a66ba
  34:	605884ba 	.word	0x605884ba
  38:	7e78726c 	.word	0x7e78726c
  3c:	1c1c1c1c 	.word	0x1c1c1c1c
  40:	a8a01c1c 	.word	0xa8a01c1c
  44:	b4ae      	.short	0xb4ae
  46:	f06f 0008 	mvn.w	r0, #8
  4a:	bd08      	pop	{r3, pc}
  4c:	e8bd 4008 	ldmia.w	sp!, {r3, lr}
  50:	2100      	movs	r1, #0
  52:	f7ff bffe 	b.w	0 <alt_clk_clock_disable>
  56:	4a4c      	ldr	r2, [pc, #304]	; (188 <alt_clk_clock_disable+0x188>)
  58:	6e13      	ldr	r3, [r2, #96]	; 0x60
  5a:	f023 0301 	bic.w	r3, r3, #1
  5e:	6613      	str	r3, [r2, #96]	; 0x60
  60:	2000      	movs	r0, #0
  62:	e7f2      	b.n	4a <alt_clk_clock_disable+0x4a>
  64:	4a48      	ldr	r2, [pc, #288]	; (188 <alt_clk_clock_disable+0x188>)
  66:	6e13      	ldr	r3, [r2, #96]	; 0x60
  68:	f023 0302 	bic.w	r3, r3, #2
  6c:	e7f7      	b.n	5e <alt_clk_clock_disable+0x5e>
  6e:	4a46      	ldr	r2, [pc, #280]	; (188 <alt_clk_clock_disable+0x188>)
  70:	6e13      	ldr	r3, [r2, #96]	; 0x60
  72:	f023 0304 	bic.w	r3, r3, #4
  76:	e7f2      	b.n	5e <alt_clk_clock_disable+0x5e>
  78:	4a43      	ldr	r2, [pc, #268]	; (188 <alt_clk_clock_disable+0x188>)
  7a:	6e13      	ldr	r3, [r2, #96]	; 0x60
  7c:	f023 0308 	bic.w	r3, r3, #8
  80:	e7ed      	b.n	5e <alt_clk_clock_disable+0x5e>
  82:	4a41      	ldr	r2, [pc, #260]	; (188 <alt_clk_clock_disable+0x188>)
  84:	6e13      	ldr	r3, [r2, #96]	; 0x60
  86:	f023 0310 	bic.w	r3, r3, #16
  8a:	e7e8      	b.n	5e <alt_clk_clock_disable+0x5e>
  8c:	4a3e      	ldr	r2, [pc, #248]	; (188 <alt_clk_clock_disable+0x188>)
  8e:	6e13      	ldr	r3, [r2, #96]	; 0x60
  90:	f023 0320 	bic.w	r3, r3, #32
  94:	e7e3      	b.n	5e <alt_clk_clock_disable+0x5e>
  96:	4a3c      	ldr	r2, [pc, #240]	; (188 <alt_clk_clock_disable+0x188>)
  98:	6e13      	ldr	r3, [r2, #96]	; 0x60
  9a:	f023 0340 	bic.w	r3, r3, #64	; 0x40
  9e:	e7de      	b.n	5e <alt_clk_clock_disable+0x5e>
  a0:	4a39      	ldr	r2, [pc, #228]	; (188 <alt_clk_clock_disable+0x188>)
  a2:	6e13      	ldr	r3, [r2, #96]	; 0x60
  a4:	f023 0380 	bic.w	r3, r3, #128	; 0x80
  a8:	e7d9      	b.n	5e <alt_clk_clock_disable+0x5e>
  aa:	4a37      	ldr	r2, [pc, #220]	; (188 <alt_clk_clock_disable+0x188>)
  ac:	6e13      	ldr	r3, [r2, #96]	; 0x60
  ae:	f423 7380 	bic.w	r3, r3, #256	; 0x100
  b2:	e7d4      	b.n	5e <alt_clk_clock_disable+0x5e>
  b4:	4a34      	ldr	r2, [pc, #208]	; (188 <alt_clk_clock_disable+0x188>)
  b6:	6e13      	ldr	r3, [r2, #96]	; 0x60
  b8:	f423 7300 	bic.w	r3, r3, #512	; 0x200
  bc:	e7cf      	b.n	5e <alt_clk_clock_disable+0x5e>
  be:	4a32      	ldr	r2, [pc, #200]	; (188 <alt_clk_clock_disable+0x188>)
  c0:	f8d2 30a0 	ldr.w	r3, [r2, #160]	; 0xa0
  c4:	f023 0301 	bic.w	r3, r3, #1
  c8:	f8c2 30a0 	str.w	r3, [r2, #160]	; 0xa0
  cc:	e7c8      	b.n	60 <alt_clk_clock_disable+0x60>
  ce:	4a2e      	ldr	r2, [pc, #184]	; (188 <alt_clk_clock_disable+0x188>)
  d0:	f8d2 30a0 	ldr.w	r3, [r2, #160]	; 0xa0
  d4:	f023 0302 	bic.w	r3, r3, #2
  d8:	e7f6      	b.n	c8 <alt_clk_clock_disable+0xc8>
  da:	4a2b      	ldr	r2, [pc, #172]	; (188 <alt_clk_clock_disable+0x188>)
  dc:	f8d2 30a0 	ldr.w	r3, [r2, #160]	; 0xa0
  e0:	f023 0308 	bic.w	r3, r3, #8
  e4:	e7f0      	b.n	c8 <alt_clk_clock_disable+0xc8>
  e6:	4a28      	ldr	r2, [pc, #160]	; (188 <alt_clk_clock_disable+0x188>)
  e8:	f8d2 30a0 	ldr.w	r3, [r2, #160]	; 0xa0
  ec:	f023 0310 	bic.w	r3, r3, #16
  f0:	e7ea      	b.n	c8 <alt_clk_clock_disable+0xc8>
  f2:	4a25      	ldr	r2, [pc, #148]	; (188 <alt_clk_clock_disable+0x188>)
  f4:	f8d2 30a0 	ldr.w	r3, [r2, #160]	; 0xa0
  f8:	f023 0320 	bic.w	r3, r3, #32
  fc:	e7e4      	b.n	c8 <alt_clk_clock_disable+0xc8>
  fe:	4a22      	ldr	r2, [pc, #136]	; (188 <alt_clk_clock_disable+0x188>)
 100:	f8d2 30a0 	ldr.w	r3, [r2, #160]	; 0xa0
 104:	f023 0340 	bic.w	r3, r3, #64	; 0x40
 108:	e7de      	b.n	c8 <alt_clk_clock_disable+0xc8>
 10a:	4a1f      	ldr	r2, [pc, #124]	; (188 <alt_clk_clock_disable+0x188>)
 10c:	f8d2 30a0 	ldr.w	r3, [r2, #160]	; 0xa0
 110:	f023 0380 	bic.w	r3, r3, #128	; 0x80
 114:	e7d8      	b.n	c8 <alt_clk_clock_disable+0xc8>
 116:	4a1c      	ldr	r2, [pc, #112]	; (188 <alt_clk_clock_disable+0x188>)
 118:	f8d2 30a0 	ldr.w	r3, [r2, #160]	; 0xa0
 11c:	f423 7380 	bic.w	r3, r3, #256	; 0x100
 120:	e7d2      	b.n	c8 <alt_clk_clock_disable+0xc8>
 122:	4a19      	ldr	r2, [pc, #100]	; (188 <alt_clk_clock_disable+0x188>)
 124:	2108      	movs	r1, #8
 126:	4819      	ldr	r0, [pc, #100]	; (18c <alt_clk_clock_disable+0x18c>)
 128:	f8d2 30a0 	ldr.w	r3, [r2, #160]	; 0xa0
 12c:	f423 6380 	bic.w	r3, r3, #1024	; 0x400
 130:	f8c2 30a0 	str.w	r3, [r2, #160]	; 0xa0
 134:	f7ff fffe 	bl	0 <alt_clk_clock_disable>
 138:	f8d2 30a0 	ldr.w	r3, [r2, #160]	; 0xa0
 13c:	f423 7300 	bic.w	r3, r3, #512	; 0x200
 140:	e7c2      	b.n	c8 <alt_clk_clock_disable+0xc8>
 142:	4a11      	ldr	r2, [pc, #68]	; (188 <alt_clk_clock_disable+0x188>)
 144:	f8d2 30a0 	ldr.w	r3, [r2, #160]	; 0xa0
 148:	f423 6300 	bic.w	r3, r3, #2048	; 0x800
 14c:	e7bc      	b.n	c8 <alt_clk_clock_disable+0xc8>
 14e:	4a0e      	ldr	r2, [pc, #56]	; (188 <alt_clk_clock_disable+0x188>)
 150:	f8d2 30d8 	ldr.w	r3, [r2, #216]	; 0xd8
 154:	f023 0301 	bic.w	r3, r3, #1
 158:	f8c2 30d8 	str.w	r3, [r2, #216]	; 0xd8
 15c:	e780      	b.n	60 <alt_clk_clock_disable+0x60>
 15e:	4a0a      	ldr	r2, [pc, #40]	; (188 <alt_clk_clock_disable+0x188>)
 160:	f8d2 30d8 	ldr.w	r3, [r2, #216]	; 0xd8
 164:	f023 0302 	bic.w	r3, r3, #2
 168:	e7f6      	b.n	158 <alt_clk_clock_disable+0x158>
 16a:	4a07      	ldr	r2, [pc, #28]	; (188 <alt_clk_clock_disable+0x188>)
 16c:	f8d2 30d8 	ldr.w	r3, [r2, #216]	; 0xd8
 170:	f023 0304 	bic.w	r3, r3, #4
 174:	e7f0      	b.n	158 <alt_clk_clock_disable+0x158>
 176:	4a04      	ldr	r2, [pc, #16]	; (188 <alt_clk_clock_disable+0x188>)
 178:	f8d2 30d8 	ldr.w	r3, [r2, #216]	; 0xd8
 17c:	f023 0308 	bic.w	r3, r3, #8
 180:	e7ea      	b.n	158 <alt_clk_clock_disable+0x158>
 182:	f06f 000d 	mvn.w	r0, #13
 186:	e760      	b.n	4a <alt_clk_clock_disable+0x4a>
 188:	ffd04000 	.word	0xffd04000
 18c:	ffd040a0 	.word	0xffd040a0

Disassembly of section .text.alt_clk_clock_enable:

00000000 <alt_clk_clock_enable>:
   0:	b508      	push	{r3, lr}
   2:	f1a0 0309 	sub.w	r3, r0, #9
   6:	2b37      	cmp	r3, #55	; 0x37
   8:	f200 80ca 	bhi.w	1a0 <alt_clk_clock_enable+0x1a0>
   c:	e8df f003 	tbb	[pc, r3]
  10:	c81c1c1c 	.word	0xc81c1c1c
  14:	c8c8c8c8 	.word	0xc8c8c8c8
  18:	c8c8c8c8 	.word	0xc8c8c8c8
  1c:	c827c8c8 	.word	0xc827c8c8
  20:	c8312c20 	.word	0xc8312c20
  24:	3b454036 	.word	0x3b454036
  28:	4f4ac8c8 	.word	0x4f4ac8c8
  2c:	c8c8c8c8 	.word	0xc8c8c8c8
  30:	6862c8c8 	.word	0x6862c8c8
  34:	86988ca8 	.word	0x86988ca8
  38:	746e5c54 	.word	0x746e5c54
  3c:	c8c8807a 	.word	0xc8c8807a
  40:	c8c8c8c8 	.word	0xc8c8c8c8
  44:	c2bcb6ae 	.word	0xc2bcb6ae
  48:	e8bd 4008 	ldmia.w	sp!, {r3, lr}
  4c:	f7ff bffe 	b.w	0 <alt_clk_clock_enable>
  50:	4a55      	ldr	r2, [pc, #340]	; (1a8 <alt_clk_clock_enable+0x1a8>)
  52:	6e13      	ldr	r3, [r2, #96]	; 0x60
  54:	f043 0301 	orr.w	r3, r3, #1
  58:	6613      	str	r3, [r2, #96]	; 0x60
  5a:	2000      	movs	r0, #0
  5c:	bd08      	pop	{r3, pc}
  5e:	4a52      	ldr	r2, [pc, #328]	; (1a8 <alt_clk_clock_enable+0x1a8>)
  60:	6e13      	ldr	r3, [r2, #96]	; 0x60
  62:	f043 0302 	orr.w	r3, r3, #2
  66:	e7f7      	b.n	58 <alt_clk_clock_enable+0x58>
  68:	4a4f      	ldr	r2, [pc, #316]	; (1a8 <alt_clk_clock_enable+0x1a8>)
  6a:	6e13      	ldr	r3, [r2, #96]	; 0x60
  6c:	f043 0304 	orr.w	r3, r3, #4
  70:	e7f2      	b.n	58 <alt_clk_clock_enable+0x58>
  72:	4a4d      	ldr	r2, [pc, #308]	; (1a8 <alt_clk_clock_enable+0x1a8>)
  74:	6e13      	ldr	r3, [r2, #96]	; 0x60
  76:	f043 0308 	orr.w	r3, r3, #8
  7a:	e7ed      	b.n	58 <alt_clk_clock_enable+0x58>
  7c:	4a4a      	ldr	r2, [pc, #296]	; (1a8 <alt_clk_clock_enable+0x1a8>)
  7e:	6e13      	ldr	r3, [r2, #96]	; 0x60
  80:	f043 0310 	orr.w	r3, r3, #16
  84:	e7e8      	b.n	58 <alt_clk_clock_enable+0x58>
  86:	4a48      	ldr	r2, [pc, #288]	; (1a8 <alt_clk_clock_enable+0x1a8>)
  88:	6e13      	ldr	r3, [r2, #96]	; 0x60
  8a:	f043 0320 	orr.w	r3, r3, #32
  8e:	e7e3      	b.n	58 <alt_clk_clock_enable+0x58>
  90:	4a45      	ldr	r2, [pc, #276]	; (1a8 <alt_clk_clock_enable+0x1a8>)
  92:	6e13      	ldr	r3, [r2, #96]	; 0x60
  94:	f043 0340 	orr.w	r3, r3, #64	; 0x40
  98:	e7de      	b.n	58 <alt_clk_clock_enable+0x58>
  9a:	4a43      	ldr	r2, [pc, #268]	; (1a8 <alt_clk_clock_enable+0x1a8>)
  9c:	6e13      	ldr	r3, [r2, #96]	; 0x60
  9e:	f043 0380 	orr.w	r3, r3, #128	; 0x80
  a2:	e7d9      	b.n	58 <alt_clk_clock_enable+0x58>
  a4:	4a40      	ldr	r2, [pc, #256]	; (1a8 <alt_clk_clock_enable+0x1a8>)
  a6:	6e13      	ldr	r3, [r2, #96]	; 0x60
  a8:	f443 7380 	orr.w	r3, r3, #256	; 0x100
  ac:	e7d4      	b.n	58 <alt_clk_clock_enable+0x58>
  ae:	4a3e      	ldr	r2, [pc, #248]	; (1a8 <alt_clk_clock_enable+0x1a8>)
  b0:	6e13      	ldr	r3, [r2, #96]	; 0x60
  b2:	f443 7300 	orr.w	r3, r3, #512	; 0x200
  b6:	e7cf      	b.n	58 <alt_clk_clock_enable+0x58>
  b8:	4a3b      	ldr	r2, [pc, #236]	; (1a8 <alt_clk_clock_enable+0x1a8>)
  ba:	f8d2 30a0 	ldr.w	r3, [r2, #160]	; 0xa0
  be:	f043 0301 	orr.w	r3, r3, #1
  c2:	f8c2 30a0 	str.w	r3, [r2, #160]	; 0xa0
  c6:	e7c8      	b.n	5a <alt_clk_clock_enable+0x5a>
  c8:	4a37      	ldr	r2, [pc, #220]	; (1a8 <alt_clk_clock_enable+0x1a8>)
  ca:	f8d2 30a0 	ldr.w	r3, [r2, #160]	; 0xa0
  ce:	f043 0302 	orr.w	r3, r3, #2
  d2:	e7f6      	b.n	c2 <alt_clk_clock_enable+0xc2>
  d4:	4a34      	ldr	r2, [pc, #208]	; (1a8 <alt_clk_clock_enable+0x1a8>)
  d6:	f8d2 30a0 	ldr.w	r3, [r2, #160]	; 0xa0
  da:	f043 0304 	orr.w	r3, r3, #4
  de:	e7f0      	b.n	c2 <alt_clk_clock_enable+0xc2>
  e0:	4a31      	ldr	r2, [pc, #196]	; (1a8 <alt_clk_clock_enable+0x1a8>)
  e2:	f8d2 30a0 	ldr.w	r3, [r2, #160]	; 0xa0
  e6:	f043 0308 	orr.w	r3, r3, #8
  ea:	e7ea      	b.n	c2 <alt_clk_clock_enable+0xc2>
  ec:	4a2e      	ldr	r2, [pc, #184]	; (1a8 <alt_clk_clock_enable+0x1a8>)
  ee:	f8d2 30a0 	ldr.w	r3, [r2, #160]	; 0xa0
  f2:	f043 0310 	orr.w	r3, r3, #16
  f6:	e7e4      	b.n	c2 <alt_clk_clock_enable+0xc2>
  f8:	4a2b      	ldr	r2, [pc, #172]	; (1a8 <alt_clk_clock_enable+0x1a8>)
  fa:	f8d2 30a0 	ldr.w	r3, [r2, #160]	; 0xa0
  fe:	f043 0320 	orr.w	r3, r3, #32
 102:	e7de      	b.n	c2 <alt_clk_clock_enable+0xc2>
 104:	4a28      	ldr	r2, [pc, #160]	; (1a8 <alt_clk_clock_enable+0x1a8>)
 106:	f8d2 30a0 	ldr.w	r3, [r2, #160]	; 0xa0
 10a:	f043 0340 	orr.w	r3, r3, #64	; 0x40
 10e:	e7d8      	b.n	c2 <alt_clk_clock_enable+0xc2>
 110:	4a25      	ldr	r2, [pc, #148]	; (1a8 <alt_clk_clock_enable+0x1a8>)
 112:	f8d2 30a0 	ldr.w	r3, [r2, #160]	; 0xa0
 116:	f043 0380 	orr.w	r3, r3, #128	; 0x80
 11a:	e7d2      	b.n	c2 <alt_clk_clock_enable+0xc2>
 11c:	4a22      	ldr	r2, [pc, #136]	; (1a8 <alt_clk_clock_enable+0x1a8>)
 11e:	f8d2 30a0 	ldr.w	r3, [r2, #160]	; 0xa0
 122:	f443 7380 	orr.w	r3, r3, #256	; 0x100
 126:	e7cc      	b.n	c2 <alt_clk_clock_enable+0xc2>
 128:	4a1f      	ldr	r2, [pc, #124]	; (1a8 <alt_clk_clock_enable+0x1a8>)
 12a:	2108      	movs	r1, #8
 12c:	481f      	ldr	r0, [pc, #124]	; (1ac <alt_clk_clock_enable+0x1ac>)
 12e:	f8d2 30a0 	ldr.w	r3, [r2, #160]	; 0xa0
 132:	f443 7300 	orr.w	r3, r3, #512	; 0x200
 136:	f8c2 30a0 	str.w	r3, [r2, #160]	; 0xa0
 13a:	f7ff fffe 	bl	0 <alt_clk_clock_enable>
 13e:	e78c      	b.n	5a <alt_clk_clock_enable+0x5a>
 140:	4a19      	ldr	r2, [pc, #100]	; (1a8 <alt_clk_clock_enable+0x1a8>)
 142:	2108      	movs	r1, #8
 144:	4819      	ldr	r0, [pc, #100]	; (1ac <alt_clk_clock_enable+0x1ac>)
 146:	f8d2 30a0 	ldr.w	r3, [r2, #160]	; 0xa0
 14a:	f443 7300 	orr.w	r3, r3, #512	; 0x200
 14e:	f8c2 30a0 	str.w	r3, [r2, #160]	; 0xa0
 152:	f7ff fffe 	bl	0 <alt_clk_clock_enable>
 156:	f8d2 30a0 	ldr.w	r3, [r2, #160]	; 0xa0
 15a:	f443 6380 	orr.w	r3, r3, #1024	; 0x400
 15e:	e7b0      	b.n	c2 <alt_clk_clock_enable+0xc2>
 160:	4a11      	ldr	r2, [pc, #68]	; (1a8 <alt_clk_clock_enable+0x1a8>)
 162:	f8d2 30a0 	ldr.w	r3, [r2, #160]	; 0xa0
 166:	f443 6300 	orr.w	r3, r3, #2048	; 0x800
 16a:	e7aa      	b.n	c2 <alt_clk_clock_enable+0xc2>
 16c:	4a0e      	ldr	r2, [pc, #56]	; (1a8 <alt_clk_clock_enable+0x1a8>)
 16e:	f8d2 30d8 	ldr.w	r3, [r2, #216]	; 0xd8
 172:	f043 0301 	orr.w	r3, r3, #1
 176:	f8c2 30d8 	str.w	r3, [r2, #216]	; 0xd8
 17a:	e76e      	b.n	5a <alt_clk_clock_enable+0x5a>
 17c:	4a0a      	ldr	r2, [pc, #40]	; (1a8 <alt_clk_clock_enable+0x1a8>)
 17e:	f8d2 30d8 	ldr.w	r3, [r2, #216]	; 0xd8
 182:	f043 0302 	orr.w	r3, r3, #2
 186:	e7f6      	b.n	176 <alt_clk_clock_enable+0x176>
 188:	4a07      	ldr	r2, [pc, #28]	; (1a8 <alt_clk_clock_enable+0x1a8>)
 18a:	f8d2 30d8 	ldr.w	r3, [r2, #216]	; 0xd8
 18e:	f043 0304 	orr.w	r3, r3, #4
 192:	e7f0      	b.n	176 <alt_clk_clock_enable+0x176>
 194:	4a04      	ldr	r2, [pc, #16]	; (1a8 <alt_clk_clock_enable+0x1a8>)
 196:	f8d2 30d8 	ldr.w	r3, [r2, #216]	; 0xd8
 19a:	f043 0308 	orr.w	r3, r3, #8
 19e:	e7ea      	b.n	176 <alt_clk_clock_enable+0x176>
 1a0:	f06f 0008 	mvn.w	r0, #8
 1a4:	e75a      	b.n	5c <alt_clk_clock_enable+0x5c>
 1a6:	bf00      	nop
 1a8:	ffd04000 	.word	0xffd04000
 1ac:	ffd040a0 	.word	0xffd040a0

Disassembly of section .text.alt_clk_is_enabled:

00000000 <alt_clk_is_enabled>:
   0:	b508      	push	{r3, lr}
   2:	f1a0 0309 	sub.w	r3, r0, #9
   6:	2b37      	cmp	r3, #55	; 0x37
   8:	f200 809a 	bhi.w	140 <alt_clk_is_enabled+0x140>
   c:	e8df f003 	tbb	[pc, r3]
  10:	981c1c1c 	.word	0x981c1c1c
  14:	98989898 	.word	0x98989898
  18:	98989898 	.word	0x98989898
  1c:	98279898 	.word	0x98279898
  20:	98312c22 	.word	0x98312c22
  24:	3b454036 	.word	0x3b454036
  28:	4f4a9898 	.word	0x4f4a9898
  2c:	98989898 	.word	0x98989898
  30:	605c9898 	.word	0x605c9898
  34:	747c7882 	.word	0x747c7882
  38:	68645854 	.word	0x68645854
  3c:	9898706c 	.word	0x9898706c
  40:	98989898 	.word	0x98989898
  44:	94908c88 	.word	0x94908c88
  48:	f7ff fffe 	bl	0 <alt_clk_is_enabled>
  4c:	3801      	subs	r0, #1
  4e:	bf18      	it	ne
  50:	2001      	movne	r0, #1
  52:	bd08      	pop	{r3, pc}
  54:	4b3c      	ldr	r3, [pc, #240]	; (148 <alt_clk_is_enabled+0x148>)
  56:	6e18      	ldr	r0, [r3, #96]	; 0x60
  58:	f000 0001 	and.w	r0, r0, #1
  5c:	e7f9      	b.n	52 <alt_clk_is_enabled+0x52>
  5e:	4b3a      	ldr	r3, [pc, #232]	; (148 <alt_clk_is_enabled+0x148>)
  60:	6e18      	ldr	r0, [r3, #96]	; 0x60
  62:	f3c0 0040 	ubfx	r0, r0, #1, #1
  66:	e7f4      	b.n	52 <alt_clk_is_enabled+0x52>
  68:	4b37      	ldr	r3, [pc, #220]	; (148 <alt_clk_is_enabled+0x148>)
  6a:	6e18      	ldr	r0, [r3, #96]	; 0x60
  6c:	f3c0 0080 	ubfx	r0, r0, #2, #1
  70:	e7ef      	b.n	52 <alt_clk_is_enabled+0x52>
  72:	4b35      	ldr	r3, [pc, #212]	; (148 <alt_clk_is_enabled+0x148>)
  74:	6e18      	ldr	r0, [r3, #96]	; 0x60
  76:	f3c0 00c0 	ubfx	r0, r0, #3, #1
  7a:	e7ea      	b.n	52 <alt_clk_is_enabled+0x52>
  7c:	4b32      	ldr	r3, [pc, #200]	; (148 <alt_clk_is_enabled+0x148>)
  7e:	6e18      	ldr	r0, [r3, #96]	; 0x60
  80:	f3c0 1000 	ubfx	r0, r0, #4, #1
  84:	e7e5      	b.n	52 <alt_clk_is_enabled+0x52>
  86:	4b30      	ldr	r3, [pc, #192]	; (148 <alt_clk_is_enabled+0x148>)
  88:	6e18      	ldr	r0, [r3, #96]	; 0x60
  8a:	f3c0 1040 	ubfx	r0, r0, #5, #1
  8e:	e7e0      	b.n	52 <alt_clk_is_enabled+0x52>
  90:	4b2d      	ldr	r3, [pc, #180]	; (148 <alt_clk_is_enabled+0x148>)
  92:	6e18      	ldr	r0, [r3, #96]	; 0x60
  94:	f3c0 1080 	ubfx	r0, r0, #6, #1
  98:	e7db      	b.n	52 <alt_clk_is_enabled+0x52>
  9a:	4b2b      	ldr	r3, [pc, #172]	; (148 <alt_clk_is_enabled+0x148>)
  9c:	6e18      	ldr	r0, [r3, #96]	; 0x60
  9e:	f3c0 10c0 	ubfx	r0, r0, #7, #1
  a2:	e7d6      	b.n	52 <alt_clk_is_enabled+0x52>
  a4:	4b28      	ldr	r3, [pc, #160]	; (148 <alt_clk_is_enabled+0x148>)
  a6:	6e18      	ldr	r0, [r3, #96]	; 0x60
  a8:	f3c0 2000 	ubfx	r0, r0, #8, #1
  ac:	e7d1      	b.n	52 <alt_clk_is_enabled+0x52>
  ae:	4b26      	ldr	r3, [pc, #152]	; (148 <alt_clk_is_enabled+0x148>)
  b0:	6e18      	ldr	r0, [r3, #96]	; 0x60
  b2:	f3c0 2040 	ubfx	r0, r0, #9, #1
  b6:	e7cc      	b.n	52 <alt_clk_is_enabled+0x52>
  b8:	4b23      	ldr	r3, [pc, #140]	; (148 <alt_clk_is_enabled+0x148>)
  ba:	f8d3 00a0 	ldr.w	r0, [r3, #160]	; 0xa0
  be:	e7cb      	b.n	58 <alt_clk_is_enabled+0x58>
  c0:	4b21      	ldr	r3, [pc, #132]	; (148 <alt_clk_is_enabled+0x148>)
  c2:	f8d3 00a0 	ldr.w	r0, [r3, #160]	; 0xa0
  c6:	e7cc      	b.n	62 <alt_clk_is_enabled+0x62>
  c8:	4b1f      	ldr	r3, [pc, #124]	; (148 <alt_clk_is_enabled+0x148>)
  ca:	f8d3 00a0 	ldr.w	r0, [r3, #160]	; 0xa0
  ce:	e7cd      	b.n	6c <alt_clk_is_enabled+0x6c>
  d0:	4b1d      	ldr	r3, [pc, #116]	; (148 <alt_clk_is_enabled+0x148>)
  d2:	f8d3 00a0 	ldr.w	r0, [r3, #160]	; 0xa0
  d6:	e7ce      	b.n	76 <alt_clk_is_enabled+0x76>
  d8:	4b1b      	ldr	r3, [pc, #108]	; (148 <alt_clk_is_enabled+0x148>)
  da:	f8d3 00a0 	ldr.w	r0, [r3, #160]	; 0xa0
  de:	e7cf      	b.n	80 <alt_clk_is_enabled+0x80>
  e0:	4b19      	ldr	r3, [pc, #100]	; (148 <alt_clk_is_enabled+0x148>)
  e2:	f8d3 00a0 	ldr.w	r0, [r3, #160]	; 0xa0
  e6:	e7d0      	b.n	8a <alt_clk_is_enabled+0x8a>
  e8:	4b17      	ldr	r3, [pc, #92]	; (148 <alt_clk_is_enabled+0x148>)
  ea:	f8d3 00a0 	ldr.w	r0, [r3, #160]	; 0xa0
  ee:	e7d1      	b.n	94 <alt_clk_is_enabled+0x94>
  f0:	4b15      	ldr	r3, [pc, #84]	; (148 <alt_clk_is_enabled+0x148>)
  f2:	f8d3 00a0 	ldr.w	r0, [r3, #160]	; 0xa0
  f6:	e7d2      	b.n	9e <alt_clk_is_enabled+0x9e>
  f8:	4b13      	ldr	r3, [pc, #76]	; (148 <alt_clk_is_enabled+0x148>)
  fa:	f8d3 00a0 	ldr.w	r0, [r3, #160]	; 0xa0
  fe:	e7d3      	b.n	a8 <alt_clk_is_enabled+0xa8>
 100:	4b11      	ldr	r3, [pc, #68]	; (148 <alt_clk_is_enabled+0x148>)
 102:	f8d3 00a0 	ldr.w	r0, [r3, #160]	; 0xa0
 106:	e7d4      	b.n	b2 <alt_clk_is_enabled+0xb2>
 108:	4b0f      	ldr	r3, [pc, #60]	; (148 <alt_clk_is_enabled+0x148>)
 10a:	f8d3 00a0 	ldr.w	r0, [r3, #160]	; 0xa0
 10e:	f3c0 2080 	ubfx	r0, r0, #10, #1
 112:	e79e      	b.n	52 <alt_clk_is_enabled+0x52>
 114:	4b0c      	ldr	r3, [pc, #48]	; (148 <alt_clk_is_enabled+0x148>)
 116:	f8d3 00a0 	ldr.w	r0, [r3, #160]	; 0xa0
 11a:	f3c0 20c0 	ubfx	r0, r0, #11, #1
 11e:	e798      	b.n	52 <alt_clk_is_enabled+0x52>
 120:	4b09      	ldr	r3, [pc, #36]	; (148 <alt_clk_is_enabled+0x148>)
 122:	f8d3 00d8 	ldr.w	r0, [r3, #216]	; 0xd8
 126:	e797      	b.n	58 <alt_clk_is_enabled+0x58>
 128:	4b07      	ldr	r3, [pc, #28]	; (148 <alt_clk_is_enabled+0x148>)
 12a:	f8d3 00d8 	ldr.w	r0, [r3, #216]	; 0xd8
 12e:	e798      	b.n	62 <alt_clk_is_enabled+0x62>
 130:	4b05      	ldr	r3, [pc, #20]	; (148 <alt_clk_is_enabled+0x148>)
 132:	f8d3 00d8 	ldr.w	r0, [r3, #216]	; 0xd8
 136:	e799      	b.n	6c <alt_clk_is_enabled+0x6c>
 138:	4b03      	ldr	r3, [pc, #12]	; (148 <alt_clk_is_enabled+0x148>)
 13a:	f8d3 00d8 	ldr.w	r0, [r3, #216]	; 0xd8
 13e:	e79a      	b.n	76 <alt_clk_is_enabled+0x76>
 140:	f06f 0008 	mvn.w	r0, #8
 144:	e785      	b.n	52 <alt_clk_is_enabled+0x52>
 146:	bf00      	nop
 148:	ffd04000 	.word	0xffd04000

Disassembly of section .text.alt_clk_source_get:

00000000 <alt_clk_source_get>:
   0:	b508      	push	{r3, lr}
   2:	2840      	cmp	r0, #64	; 0x40
   4:	f200 80e5 	bhi.w	1d2 <alt_clk_source_get+0x1d2>
   8:	e8df f000 	tbb	[pc, r0]
   c:	2f2f2f2f 	.word	0x2f2f2f2f
  10:	2f2f2f2f 	.word	0x2f2f2f2f
  14:	bb72272f 	.word	0xbb72272f
  18:	21212127 	.word	0x21212127
  1c:	29212121 	.word	0x29212121
  20:	35352929 	.word	0x35352929
  24:	42303535 	.word	0x42303535
  28:	47474747 	.word	0x47474747
  2c:	5d564f47 	.word	0x5d564f47
  30:	6464645d 	.word	0x6464645d
  34:	3c646464 	.word	0x3c646464
  38:	96969e3c 	.word	0x96969e3c
  3c:	3c746e80 	.word	0x3c746e80
  40:	b67a3c3c 	.word	0xb67a3c3c
  44:	b6b6b6b6 	.word	0xb6b6b6b6
  48:	cdc6bfb6 	.word	0xcdc6bfb6
  4c:	d4          	.byte	0xd4
  4d:	00          	.byte	0x00
  4e:	2009      	movs	r0, #9
  50:	f7ff fffe 	bl	0 <alt_clk_source_get>
  54:	2801      	cmp	r0, #1
  56:	f040 80b4 	bne.w	1c2 <alt_clk_source_get+0x1c2>
  5a:	2000      	movs	r0, #0
  5c:	e005      	b.n	6a <alt_clk_source_get+0x6a>
  5e:	2009      	movs	r0, #9
  60:	f7ff fffe 	bl	0 <alt_clk_source_get>
  64:	2801      	cmp	r0, #1
  66:	d0f8      	beq.n	5a <alt_clk_source_get+0x5a>
  68:	200d      	movs	r0, #13
  6a:	bd08      	pop	{r3, pc}
  6c:	4b5b      	ldr	r3, [pc, #364]	; (1dc <alt_clk_source_get+0x1dc>)
  6e:	6f1b      	ldr	r3, [r3, #112]	; 0x70
  70:	f013 0f01 	tst.w	r3, #1
  74:	d106      	bne.n	84 <alt_clk_source_get+0x84>
  76:	2009      	movs	r0, #9
  78:	f7ff fffe 	bl	0 <alt_clk_source_get>
  7c:	2801      	cmp	r0, #1
  7e:	d0ec      	beq.n	5a <alt_clk_source_get+0x5a>
  80:	200e      	movs	r0, #14
  82:	e7f2      	b.n	6a <alt_clk_source_get+0x6a>
  84:	f7ff fffe 	bl	0 <alt_clk_source_get>
  88:	2801      	cmp	r0, #1
  8a:	d031      	beq.n	f0 <alt_clk_source_get+0xf0>
  8c:	2029      	movs	r0, #41	; 0x29
  8e:	e7ec      	b.n	6a <alt_clk_source_get+0x6a>
  90:	4b52      	ldr	r3, [pc, #328]	; (1dc <alt_clk_source_get+0x1dc>)
  92:	6f1b      	ldr	r3, [r3, #112]	; 0x70
  94:	f013 0f02 	tst.w	r3, #2
  98:	e7ec      	b.n	74 <alt_clk_source_get+0x74>
  9a:	2009      	movs	r0, #9
  9c:	f7ff fffe 	bl	0 <alt_clk_source_get>
  a0:	2801      	cmp	r0, #1
  a2:	f040 8090 	bne.w	1c6 <alt_clk_source_get+0x1c6>
  a6:	200c      	movs	r0, #12
  a8:	e7df      	b.n	6a <alt_clk_source_get+0x6a>
  aa:	2009      	movs	r0, #9
  ac:	f7ff fffe 	bl	0 <alt_clk_source_get>
  b0:	2801      	cmp	r0, #1
  b2:	d0f8      	beq.n	a6 <alt_clk_source_get+0xa6>
  b4:	2010      	movs	r0, #16
  b6:	e7d8      	b.n	6a <alt_clk_source_get+0x6a>
  b8:	2009      	movs	r0, #9
  ba:	f7ff fffe 	bl	0 <alt_clk_source_get>
  be:	2801      	cmp	r0, #1
  c0:	d0f1      	beq.n	a6 <alt_clk_source_get+0xa6>
  c2:	2011      	movs	r0, #17
  c4:	e7d1      	b.n	6a <alt_clk_source_get+0x6a>
  c6:	2009      	movs	r0, #9
  c8:	f7ff fffe 	bl	0 <alt_clk_source_get>
  cc:	2801      	cmp	r0, #1
  ce:	d0ea      	beq.n	a6 <alt_clk_source_get+0xa6>
  d0:	2012      	movs	r0, #18
  d2:	e7ca      	b.n	6a <alt_clk_source_get+0x6a>
  d4:	f7ff fffe 	bl	0 <alt_clk_source_get>
  d8:	2801      	cmp	r0, #1
  da:	f04f 000a 	mov.w	r0, #10
  de:	d1c4      	bne.n	6a <alt_clk_source_get+0x6a>
  e0:	e8bd 4008 	ldmia.w	sp!, {r3, lr}
  e4:	f7ff bffe 	b.w	0 <alt_clk_source_get>
  e8:	f7ff fffe 	bl	0 <alt_clk_source_get>
  ec:	2801      	cmp	r0, #1
  ee:	d16c      	bne.n	1ca <alt_clk_source_get+0x1ca>
  f0:	200a      	movs	r0, #10
  f2:	e7f5      	b.n	e0 <alt_clk_source_get+0xe0>
  f4:	f7ff fffe 	bl	0 <alt_clk_source_get>
  f8:	2801      	cmp	r0, #1
  fa:	d0f9      	beq.n	f0 <alt_clk_source_get+0xf0>
  fc:	2026      	movs	r0, #38	; 0x26
  fe:	e7b4      	b.n	6a <alt_clk_source_get+0x6a>
 100:	f7ff fffe 	bl	0 <alt_clk_source_get>
 104:	2801      	cmp	r0, #1
 106:	d0f3      	beq.n	f0 <alt_clk_source_get+0xf0>
 108:	202a      	movs	r0, #42	; 0x2a
 10a:	e7ae      	b.n	6a <alt_clk_source_get+0x6a>
 10c:	4b33      	ldr	r3, [pc, #204]	; (1dc <alt_clk_source_get+0x1dc>)
 10e:	f8d3 30ac 	ldr.w	r3, [r3, #172]	; 0xac
 112:	f013 0303 	ands.w	r3, r3, #3
 116:	d05a      	beq.n	1ce <alt_clk_source_get+0x1ce>
 118:	2b01      	cmp	r3, #1
 11a:	d105      	bne.n	128 <alt_clk_source_get+0x128>
 11c:	2009      	movs	r0, #9
 11e:	f7ff fffe 	bl	0 <alt_clk_source_get>
 122:	2801      	cmp	r0, #1
 124:	d1cd      	bne.n	c2 <alt_clk_source_get+0xc2>
 126:	e798      	b.n	5a <alt_clk_source_get+0x5a>
 128:	2b02      	cmp	r3, #2
 12a:	d152      	bne.n	1d2 <alt_clk_source_get+0x1d2>
 12c:	f7ff fffe 	bl	0 <alt_clk_source_get>
 130:	2801      	cmp	r0, #1
 132:	d0dd      	beq.n	f0 <alt_clk_source_get+0xf0>
 134:	2028      	movs	r0, #40	; 0x28
 136:	e798      	b.n	6a <alt_clk_source_get+0x6a>
 138:	4b28      	ldr	r3, [pc, #160]	; (1dc <alt_clk_source_get+0x1dc>)
 13a:	f8d3 20ac 	ldr.w	r2, [r3, #172]	; 0xac
 13e:	f012 0f0c 	tst.w	r2, #12
 142:	f3c2 0381 	ubfx	r3, r2, #2, #2
 146:	e7e6      	b.n	116 <alt_clk_source_get+0x116>
 148:	4b24      	ldr	r3, [pc, #144]	; (1dc <alt_clk_source_get+0x1dc>)
 14a:	f8d3 20ac 	ldr.w	r2, [r3, #172]	; 0xac
 14e:	f012 0f30 	tst.w	r2, #48	; 0x30
 152:	f3c2 1301 	ubfx	r3, r2, #4, #2
 156:	d03a      	beq.n	1ce <alt_clk_source_get+0x1ce>
 158:	2b01      	cmp	r3, #1
 15a:	d105      	bne.n	168 <alt_clk_source_get+0x168>
 15c:	2009      	movs	r0, #9
 15e:	f7ff fffe 	bl	0 <alt_clk_source_get>
 162:	2801      	cmp	r0, #1
 164:	d1a6      	bne.n	b4 <alt_clk_source_get+0xb4>
 166:	e778      	b.n	5a <alt_clk_source_get+0x5a>
 168:	2b02      	cmp	r3, #2
 16a:	d132      	bne.n	1d2 <alt_clk_source_get+0x1d2>
 16c:	f7ff fffe 	bl	0 <alt_clk_source_get>
 170:	2801      	cmp	r0, #1
 172:	d0bd      	beq.n	f0 <alt_clk_source_get+0xf0>
 174:	2027      	movs	r0, #39	; 0x27
 176:	e778      	b.n	6a <alt_clk_source_get+0x6a>
 178:	200b      	movs	r0, #11
 17a:	f7ff fffe 	bl	0 <alt_clk_source_get>
 17e:	2801      	cmp	r0, #1
 180:	d129      	bne.n	1d6 <alt_clk_source_get+0x1d6>
 182:	e8bd 4008 	ldmia.w	sp!, {r3, lr}
 186:	f7ff bffe 	b.w	0 <alt_clk_source_get>
 18a:	200b      	movs	r0, #11
 18c:	f7ff fffe 	bl	0 <alt_clk_source_get>
 190:	2801      	cmp	r0, #1
 192:	d0f6      	beq.n	182 <alt_clk_source_get+0x182>
 194:	2037      	movs	r0, #55	; 0x37
 196:	e768      	b.n	6a <alt_clk_source_get+0x6a>
 198:	200b      	movs	r0, #11
 19a:	f7ff fffe 	bl	0 <alt_clk_source_get>
 19e:	2801      	cmp	r0, #1
 1a0:	d0ef      	beq.n	182 <alt_clk_source_get+0x182>
 1a2:	2038      	movs	r0, #56	; 0x38
 1a4:	e761      	b.n	6a <alt_clk_source_get+0x6a>
 1a6:	200b      	movs	r0, #11
 1a8:	f7ff fffe 	bl	0 <alt_clk_source_get>
 1ac:	2801      	cmp	r0, #1
 1ae:	d0e8      	beq.n	182 <alt_clk_source_get+0x182>
 1b0:	2039      	movs	r0, #57	; 0x39
 1b2:	e75a      	b.n	6a <alt_clk_source_get+0x6a>
 1b4:	200b      	movs	r0, #11
 1b6:	f7ff fffe 	bl	0 <alt_clk_source_get>
 1ba:	2801      	cmp	r0, #1
 1bc:	d0e1      	beq.n	182 <alt_clk_source_get+0x182>
 1be:	203c      	movs	r0, #60	; 0x3c
 1c0:	e753      	b.n	6a <alt_clk_source_get+0x6a>
 1c2:	2009      	movs	r0, #9
 1c4:	e751      	b.n	6a <alt_clk_source_get+0x6a>
 1c6:	200f      	movs	r0, #15
 1c8:	e74f      	b.n	6a <alt_clk_source_get+0x6a>
 1ca:	2025      	movs	r0, #37	; 0x25
 1cc:	e74d      	b.n	6a <alt_clk_source_get+0x6a>
 1ce:	2002      	movs	r0, #2
 1d0:	e74b      	b.n	6a <alt_clk_source_get+0x6a>
 1d2:	204b      	movs	r0, #75	; 0x4b
 1d4:	e749      	b.n	6a <alt_clk_source_get+0x6a>
 1d6:	200b      	movs	r0, #11
 1d8:	e747      	b.n	6a <alt_clk_source_get+0x6a>
 1da:	bf00      	nop
 1dc:	ffd04000 	.word	0xffd04000

Disassembly of section .text.alt_clk_source_set:

00000000 <alt_clk_source_set>:
   0:	4603      	mov	r3, r0
   2:	4608      	mov	r0, r1
   4:	2b09      	cmp	r3, #9
   6:	d108      	bne.n	1a <alt_clk_source_set+0x1a>
   8:	2900      	cmp	r1, #0
   a:	f000 809c 	beq.w	146 <alt_clk_source_set+0x146>
   e:	290c      	cmp	r1, #12
  10:	bf0c      	ite	eq
  12:	2000      	moveq	r0, #0
  14:	f06f 0008 	mvnne.w	r0, #8
  18:	4770      	bx	lr
  1a:	2b0a      	cmp	r3, #10
  1c:	d115      	bne.n	4a <alt_clk_source_set+0x4a>
  1e:	4a4a      	ldr	r2, [pc, #296]	; (148 <alt_clk_source_set+0x148>)
  20:	f8d2 3080 	ldr.w	r3, [r2, #128]	; 0x80
  24:	f423 0340 	bic.w	r3, r3, #12582912	; 0xc00000
  28:	b109      	cbz	r1, 2e <alt_clk_source_set+0x2e>
  2a:	290c      	cmp	r1, #12
  2c:	d103      	bne.n	36 <alt_clk_source_set+0x36>
  2e:	f8c2 3080 	str.w	r3, [r2, #128]	; 0x80
  32:	2000      	movs	r0, #0
  34:	4770      	bx	lr
  36:	2901      	cmp	r1, #1
  38:	d102      	bne.n	40 <alt_clk_source_set+0x40>
  3a:	f443 0380 	orr.w	r3, r3, #4194304	; 0x400000
  3e:	e7f6      	b.n	2e <alt_clk_source_set+0x2e>
  40:	2902      	cmp	r1, #2
  42:	d17e      	bne.n	142 <alt_clk_source_set+0x142>
  44:	f443 0300 	orr.w	r3, r3, #8388608	; 0x800000
  48:	e7f1      	b.n	2e <alt_clk_source_set+0x2e>
  4a:	2b0b      	cmp	r3, #11
  4c:	d114      	bne.n	78 <alt_clk_source_set+0x78>
  4e:	4a3e      	ldr	r2, [pc, #248]	; (148 <alt_clk_source_set+0x148>)
  50:	f8d2 30c0 	ldr.w	r3, [r2, #192]	; 0xc0
  54:	f423 0340 	bic.w	r3, r3, #12582912	; 0xc00000
  58:	b109      	cbz	r1, 5e <alt_clk_source_set+0x5e>
  5a:	290c      	cmp	r1, #12
  5c:	d102      	bne.n	64 <alt_clk_source_set+0x64>
  5e:	f8c2 30c0 	str.w	r3, [r2, #192]	; 0xc0
  62:	e7e6      	b.n	32 <alt_clk_source_set+0x32>
  64:	2901      	cmp	r1, #1
  66:	d102      	bne.n	6e <alt_clk_source_set+0x6e>
  68:	f443 0380 	orr.w	r3, r3, #4194304	; 0x400000
  6c:	e7f7      	b.n	5e <alt_clk_source_set+0x5e>
  6e:	2903      	cmp	r1, #3
  70:	d167      	bne.n	142 <alt_clk_source_set+0x142>
  72:	f443 0300 	orr.w	r3, r3, #8388608	; 0x800000
  76:	e7f2      	b.n	5e <alt_clk_source_set+0x5e>
  78:	2b1a      	cmp	r3, #26
  7a:	d10e      	bne.n	9a <alt_clk_source_set+0x9a>
  7c:	290e      	cmp	r1, #14
  7e:	d105      	bne.n	8c <alt_clk_source_set+0x8c>
  80:	4a31      	ldr	r2, [pc, #196]	; (148 <alt_clk_source_set+0x148>)
  82:	6f13      	ldr	r3, [r2, #112]	; 0x70
  84:	f023 0301 	bic.w	r3, r3, #1
  88:	6713      	str	r3, [r2, #112]	; 0x70
  8a:	e7d2      	b.n	32 <alt_clk_source_set+0x32>
  8c:	2929      	cmp	r1, #41	; 0x29
  8e:	d158      	bne.n	142 <alt_clk_source_set+0x142>
  90:	4a2d      	ldr	r2, [pc, #180]	; (148 <alt_clk_source_set+0x148>)
  92:	6f13      	ldr	r3, [r2, #112]	; 0x70
  94:	f043 0301 	orr.w	r3, r3, #1
  98:	e7f6      	b.n	88 <alt_clk_source_set+0x88>
  9a:	2b1b      	cmp	r3, #27
  9c:	d10d      	bne.n	ba <alt_clk_source_set+0xba>
  9e:	290e      	cmp	r1, #14
  a0:	d104      	bne.n	ac <alt_clk_source_set+0xac>
  a2:	4a29      	ldr	r2, [pc, #164]	; (148 <alt_clk_source_set+0x148>)
  a4:	6f13      	ldr	r3, [r2, #112]	; 0x70
  a6:	f023 0302 	bic.w	r3, r3, #2
  aa:	e7ed      	b.n	88 <alt_clk_source_set+0x88>
  ac:	2929      	cmp	r1, #41	; 0x29
  ae:	d148      	bne.n	142 <alt_clk_source_set+0x142>
  b0:	4a25      	ldr	r2, [pc, #148]	; (148 <alt_clk_source_set+0x148>)
  b2:	6f13      	ldr	r3, [r2, #112]	; 0x70
  b4:	f043 0302 	orr.w	r3, r3, #2
  b8:	e7e6      	b.n	88 <alt_clk_source_set+0x88>
  ba:	2b30      	cmp	r3, #48	; 0x30
  bc:	d115      	bne.n	ea <alt_clk_source_set+0xea>
  be:	4a22      	ldr	r2, [pc, #136]	; (148 <alt_clk_source_set+0x148>)
  c0:	2902      	cmp	r1, #2
  c2:	f8d2 30ac 	ldr.w	r3, [r2, #172]	; 0xac
  c6:	f023 0303 	bic.w	r3, r3, #3
  ca:	d102      	bne.n	d2 <alt_clk_source_set+0xd2>
  cc:	f8c2 30ac 	str.w	r3, [r2, #172]	; 0xac
  d0:	e7af      	b.n	32 <alt_clk_source_set+0x32>
  d2:	2911      	cmp	r1, #17
  d4:	d001      	beq.n	da <alt_clk_source_set+0xda>
  d6:	2922      	cmp	r1, #34	; 0x22
  d8:	d102      	bne.n	e0 <alt_clk_source_set+0xe0>
  da:	f043 0301 	orr.w	r3, r3, #1
  de:	e7f5      	b.n	cc <alt_clk_source_set+0xcc>
  e0:	2928      	cmp	r1, #40	; 0x28
  e2:	d12e      	bne.n	142 <alt_clk_source_set+0x142>
  e4:	f043 0302 	orr.w	r3, r3, #2
  e8:	e7f0      	b.n	cc <alt_clk_source_set+0xcc>
  ea:	f1a3 022e 	sub.w	r2, r3, #46	; 0x2e
  ee:	2a01      	cmp	r2, #1
  f0:	d812      	bhi.n	118 <alt_clk_source_set+0x118>
  f2:	4a15      	ldr	r2, [pc, #84]	; (148 <alt_clk_source_set+0x148>)
  f4:	2902      	cmp	r1, #2
  f6:	f8d2 30ac 	ldr.w	r3, [r2, #172]	; 0xac
  fa:	f023 030c 	bic.w	r3, r3, #12
  fe:	d0e5      	beq.n	cc <alt_clk_source_set+0xcc>
 100:	2911      	cmp	r1, #17
 102:	d001      	beq.n	108 <alt_clk_source_set+0x108>
 104:	2922      	cmp	r1, #34	; 0x22
 106:	d102      	bne.n	10e <alt_clk_source_set+0x10e>
 108:	f043 0304 	orr.w	r3, r3, #4
 10c:	e7de      	b.n	cc <alt_clk_source_set+0xcc>
 10e:	2928      	cmp	r1, #40	; 0x28
 110:	d117      	bne.n	142 <alt_clk_source_set+0x142>
 112:	f043 0308 	orr.w	r3, r3, #8
 116:	e7d9      	b.n	cc <alt_clk_source_set+0xcc>
 118:	2b2d      	cmp	r3, #45	; 0x2d
 11a:	d18a      	bne.n	32 <alt_clk_source_set+0x32>
 11c:	4a0a      	ldr	r2, [pc, #40]	; (148 <alt_clk_source_set+0x148>)
 11e:	2902      	cmp	r1, #2
 120:	f8d2 30ac 	ldr.w	r3, [r2, #172]	; 0xac
 124:	f023 0330 	bic.w	r3, r3, #48	; 0x30
 128:	d0d0      	beq.n	cc <alt_clk_source_set+0xcc>
 12a:	2910      	cmp	r1, #16
 12c:	d001      	beq.n	132 <alt_clk_source_set+0x132>
 12e:	2921      	cmp	r1, #33	; 0x21
 130:	d102      	bne.n	138 <alt_clk_source_set+0x138>
 132:	f043 0310 	orr.w	r3, r3, #16
 136:	e7c9      	b.n	cc <alt_clk_source_set+0xcc>
 138:	2927      	cmp	r1, #39	; 0x27
 13a:	d102      	bne.n	142 <alt_clk_source_set+0x142>
 13c:	f043 0320 	orr.w	r3, r3, #32
 140:	e7c4      	b.n	cc <alt_clk_source_set+0xcc>
 142:	f06f 000a 	mvn.w	r0, #10
 146:	4770      	bx	lr
 148:	ffd04000 	.word	0xffd04000

Disassembly of section .text.alt_clk_ext_clk_freq_set:

00000000 <alt_clk_ext_clk_freq_set>:
   0:	b108      	cbz	r0, 6 <alt_clk_ext_clk_freq_set+0x6>
   2:	280c      	cmp	r0, #12
   4:	d109      	bne.n	1a <alt_clk_ext_clk_freq_set+0x1a>
   6:	4b18      	ldr	r3, [pc, #96]	; (68 <alt_clk_ext_clk_freq_set+0x68>)
   8:	685a      	ldr	r2, [r3, #4]
   a:	428a      	cmp	r2, r1
   c:	d829      	bhi.n	62 <alt_clk_ext_clk_freq_set+0x62>
   e:	689a      	ldr	r2, [r3, #8]
  10:	428a      	cmp	r2, r1
  12:	d326      	bcc.n	62 <alt_clk_ext_clk_freq_set+0x62>
  14:	6019      	str	r1, [r3, #0]
  16:	2000      	movs	r0, #0
  18:	4770      	bx	lr
  1a:	2801      	cmp	r0, #1
  1c:	d108      	bne.n	30 <alt_clk_ext_clk_freq_set+0x30>
  1e:	4b12      	ldr	r3, [pc, #72]	; (68 <alt_clk_ext_clk_freq_set+0x68>)
  20:	695a      	ldr	r2, [r3, #20]
  22:	428a      	cmp	r2, r1
  24:	d81d      	bhi.n	62 <alt_clk_ext_clk_freq_set+0x62>
  26:	699a      	ldr	r2, [r3, #24]
  28:	428a      	cmp	r2, r1
  2a:	d31a      	bcc.n	62 <alt_clk_ext_clk_freq_set+0x62>
  2c:	6119      	str	r1, [r3, #16]
  2e:	e7f2      	b.n	16 <alt_clk_ext_clk_freq_set+0x16>
  30:	2802      	cmp	r0, #2
  32:	d108      	bne.n	46 <alt_clk_ext_clk_freq_set+0x46>
  34:	4b0c      	ldr	r3, [pc, #48]	; (68 <alt_clk_ext_clk_freq_set+0x68>)
  36:	6a5a      	ldr	r2, [r3, #36]	; 0x24
  38:	428a      	cmp	r2, r1
  3a:	d812      	bhi.n	62 <alt_clk_ext_clk_freq_set+0x62>
  3c:	6a9a      	ldr	r2, [r3, #40]	; 0x28
  3e:	428a      	cmp	r2, r1
  40:	d30f      	bcc.n	62 <alt_clk_ext_clk_freq_set+0x62>
  42:	6219      	str	r1, [r3, #32]
  44:	e7e7      	b.n	16 <alt_clk_ext_clk_freq_set+0x16>
  46:	2803      	cmp	r0, #3
  48:	d108      	bne.n	5c <alt_clk_ext_clk_freq_set+0x5c>
  4a:	4b07      	ldr	r3, [pc, #28]	; (68 <alt_clk_ext_clk_freq_set+0x68>)
  4c:	6b5a      	ldr	r2, [r3, #52]	; 0x34
  4e:	428a      	cmp	r2, r1
  50:	d807      	bhi.n	62 <alt_clk_ext_clk_freq_set+0x62>
  52:	6b9a      	ldr	r2, [r3, #56]	; 0x38
  54:	428a      	cmp	r2, r1
  56:	d304      	bcc.n	62 <alt_clk_ext_clk_freq_set+0x62>
  58:	6319      	str	r1, [r3, #48]	; 0x30
  5a:	e7dc      	b.n	16 <alt_clk_ext_clk_freq_set+0x16>
  5c:	f06f 0008 	mvn.w	r0, #8
  60:	4770      	bx	lr
  62:	f06f 0007 	mvn.w	r0, #7
  66:	4770      	bx	lr
  68:	00000000 	.word	0x00000000

Disassembly of section .text.alt_clk_ext_clk_freq_get:

00000000 <alt_clk_ext_clk_freq_get>:
   0:	b108      	cbz	r0, 6 <alt_clk_ext_clk_freq_get+0x6>
   2:	280c      	cmp	r0, #12
   4:	d102      	bne.n	c <alt_clk_ext_clk_freq_get+0xc>
   6:	4b09      	ldr	r3, [pc, #36]	; (2c <alt_clk_ext_clk_freq_get+0x2c>)
   8:	6818      	ldr	r0, [r3, #0]
   a:	4770      	bx	lr
   c:	2801      	cmp	r0, #1
   e:	d102      	bne.n	16 <alt_clk_ext_clk_freq_get+0x16>
  10:	4b06      	ldr	r3, [pc, #24]	; (2c <alt_clk_ext_clk_freq_get+0x2c>)
  12:	6918      	ldr	r0, [r3, #16]
  14:	4770      	bx	lr
  16:	2802      	cmp	r0, #2
  18:	d102      	bne.n	20 <alt_clk_ext_clk_freq_get+0x20>
  1a:	4b04      	ldr	r3, [pc, #16]	; (2c <alt_clk_ext_clk_freq_get+0x2c>)
  1c:	6a18      	ldr	r0, [r3, #32]
  1e:	4770      	bx	lr
  20:	2803      	cmp	r0, #3
  22:	bf06      	itte	eq
  24:	4b01      	ldreq	r3, [pc, #4]	; (2c <alt_clk_ext_clk_freq_get+0x2c>)
  26:	6b18      	ldreq	r0, [r3, #48]	; 0x30
  28:	2000      	movne	r0, #0
  2a:	4770      	bx	lr
  2c:	00000000 	.word	0x00000000

Disassembly of section .text.alt_clk_pll_cfg_get:

00000000 <alt_clk_pll_cfg_get>:
   0:	b510      	push	{r4, lr}
   2:	2900      	cmp	r1, #0
   4:	f000 80aa 	beq.w	15c <alt_clk_pll_cfg_get+0x15c>
   8:	2809      	cmp	r0, #9
   a:	d128      	bne.n	5e <alt_clk_pll_cfg_get+0x5e>
   c:	4b56      	ldr	r3, [pc, #344]	; (168 <alt_clk_pll_cfg_get+0x168>)
   e:	2000      	movs	r0, #0
  10:	6c1a      	ldr	r2, [r3, #64]	; 0x40
  12:	6008      	str	r0, [r1, #0]
  14:	f3c2 04cc 	ubfx	r4, r2, #3, #13
  18:	f3c2 4205 	ubfx	r2, r2, #16, #6
  1c:	604c      	str	r4, [r1, #4]
  1e:	608a      	str	r2, [r1, #8]
  20:	6c9a      	ldr	r2, [r3, #72]	; 0x48
  22:	f3c2 0208 	ubfx	r2, r2, #0, #9
  26:	60ca      	str	r2, [r1, #12]
  28:	6cda      	ldr	r2, [r3, #76]	; 0x4c
  2a:	f3c2 0208 	ubfx	r2, r2, #0, #9
  2e:	610a      	str	r2, [r1, #16]
  30:	6d1a      	ldr	r2, [r3, #80]	; 0x50
  32:	f3c2 0208 	ubfx	r2, r2, #0, #9
  36:	614a      	str	r2, [r1, #20]
  38:	6d5a      	ldr	r2, [r3, #84]	; 0x54
  3a:	f3c2 0208 	ubfx	r2, r2, #0, #9
  3e:	618a      	str	r2, [r1, #24]
  40:	6d9a      	ldr	r2, [r3, #88]	; 0x58
  42:	f3c2 0208 	ubfx	r2, r2, #0, #9
  46:	61ca      	str	r2, [r1, #28]
  48:	6ddb      	ldr	r3, [r3, #92]	; 0x5c
  4a:	f3c3 0308 	ubfx	r3, r3, #0, #9
  4e:	620b      	str	r3, [r1, #32]
  50:	6388      	str	r0, [r1, #56]	; 0x38
  52:	6348      	str	r0, [r1, #52]	; 0x34
  54:	6308      	str	r0, [r1, #48]	; 0x30
  56:	62c8      	str	r0, [r1, #44]	; 0x2c
  58:	6288      	str	r0, [r1, #40]	; 0x28
  5a:	6248      	str	r0, [r1, #36]	; 0x24
  5c:	bd10      	pop	{r4, pc}
  5e:	280a      	cmp	r0, #10
  60:	d134      	bne.n	cc <alt_clk_pll_cfg_get+0xcc>
  62:	4b41      	ldr	r3, [pc, #260]	; (168 <alt_clk_pll_cfg_get+0x168>)
  64:	f8d3 2080 	ldr.w	r2, [r3, #128]	; 0x80
  68:	f3c2 5281 	ubfx	r2, r2, #22, #2
  6c:	2a03      	cmp	r2, #3
  6e:	d078      	beq.n	162 <alt_clk_pll_cfg_get+0x162>
  70:	bb42      	cbnz	r2, c4 <alt_clk_pll_cfg_get+0xc4>
  72:	600a      	str	r2, [r1, #0]
  74:	f8d3 2080 	ldr.w	r2, [r3, #128]	; 0x80
  78:	f3c2 00cc 	ubfx	r0, r2, #3, #13
  7c:	f3c2 4205 	ubfx	r2, r2, #16, #6
  80:	6048      	str	r0, [r1, #4]
  82:	2000      	movs	r0, #0
  84:	608a      	str	r2, [r1, #8]
  86:	f8d3 2088 	ldr.w	r2, [r3, #136]	; 0x88
  8a:	f3c2 0208 	ubfx	r2, r2, #0, #9
  8e:	60ca      	str	r2, [r1, #12]
  90:	f8d3 208c 	ldr.w	r2, [r3, #140]	; 0x8c
  94:	f3c2 0208 	ubfx	r2, r2, #0, #9
  98:	610a      	str	r2, [r1, #16]
  9a:	f8d3 2090 	ldr.w	r2, [r3, #144]	; 0x90
  9e:	f3c2 0208 	ubfx	r2, r2, #0, #9
  a2:	614a      	str	r2, [r1, #20]
  a4:	f8d3 2094 	ldr.w	r2, [r3, #148]	; 0x94
  a8:	f3c2 0208 	ubfx	r2, r2, #0, #9
  ac:	618a      	str	r2, [r1, #24]
  ae:	f8d3 2098 	ldr.w	r2, [r3, #152]	; 0x98
  b2:	f3c2 0208 	ubfx	r2, r2, #0, #9
  b6:	61ca      	str	r2, [r1, #28]
  b8:	f8d3 309c 	ldr.w	r3, [r3, #156]	; 0x9c
  bc:	f3c3 0308 	ubfx	r3, r3, #0, #9
  c0:	620b      	str	r3, [r1, #32]
  c2:	e7c5      	b.n	50 <alt_clk_pll_cfg_get+0x50>
  c4:	2a01      	cmp	r2, #1
  c6:	bf18      	it	ne
  c8:	2202      	movne	r2, #2
  ca:	e7d2      	b.n	72 <alt_clk_pll_cfg_get+0x72>
  cc:	280b      	cmp	r0, #11
  ce:	d148      	bne.n	162 <alt_clk_pll_cfg_get+0x162>
  d0:	4b25      	ldr	r3, [pc, #148]	; (168 <alt_clk_pll_cfg_get+0x168>)
  d2:	f8d3 20c0 	ldr.w	r2, [r3, #192]	; 0xc0
  d6:	f3c2 5281 	ubfx	r2, r2, #22, #2
  da:	2a03      	cmp	r2, #3
  dc:	d041      	beq.n	162 <alt_clk_pll_cfg_get+0x162>
  de:	2a00      	cmp	r2, #0
  e0:	d138      	bne.n	154 <alt_clk_pll_cfg_get+0x154>
  e2:	600a      	str	r2, [r1, #0]
  e4:	2000      	movs	r0, #0
  e6:	f8d3 20c0 	ldr.w	r2, [r3, #192]	; 0xc0
  ea:	f3c2 02cc 	ubfx	r2, r2, #3, #13
  ee:	604a      	str	r2, [r1, #4]
  f0:	f8d3 20c0 	ldr.w	r2, [r3, #192]	; 0xc0
  f4:	f3c2 4205 	ubfx	r2, r2, #16, #6
  f8:	608a      	str	r2, [r1, #8]
  fa:	f8d3 20c8 	ldr.w	r2, [r3, #200]	; 0xc8
  fe:	f3c2 0208 	ubfx	r2, r2, #0, #9
 102:	60ca      	str	r2, [r1, #12]
 104:	f8d3 20c8 	ldr.w	r2, [r3, #200]	; 0xc8
 108:	f3c2 224b 	ubfx	r2, r2, #9, #12
 10c:	624a      	str	r2, [r1, #36]	; 0x24
 10e:	f8d3 20cc 	ldr.w	r2, [r3, #204]	; 0xcc
 112:	f3c2 0208 	ubfx	r2, r2, #0, #9
 116:	610a      	str	r2, [r1, #16]
 118:	f8d3 20cc 	ldr.w	r2, [r3, #204]	; 0xcc
 11c:	f3c2 224b 	ubfx	r2, r2, #9, #12
 120:	628a      	str	r2, [r1, #40]	; 0x28
 122:	f8d3 20d0 	ldr.w	r2, [r3, #208]	; 0xd0
 126:	f3c2 0208 	ubfx	r2, r2, #0, #9
 12a:	614a      	str	r2, [r1, #20]
 12c:	f8d3 20d0 	ldr.w	r2, [r3, #208]	; 0xd0
 130:	6348      	str	r0, [r1, #52]	; 0x34
 132:	6308      	str	r0, [r1, #48]	; 0x30
 134:	f3c2 224b 	ubfx	r2, r2, #9, #12
 138:	61c8      	str	r0, [r1, #28]
 13a:	62ca      	str	r2, [r1, #44]	; 0x2c
 13c:	6188      	str	r0, [r1, #24]
 13e:	f8d3 20d4 	ldr.w	r2, [r3, #212]	; 0xd4
 142:	f3c2 0208 	ubfx	r2, r2, #0, #9
 146:	620a      	str	r2, [r1, #32]
 148:	f8d3 30d4 	ldr.w	r3, [r3, #212]	; 0xd4
 14c:	f3c3 234b 	ubfx	r3, r3, #9, #12
 150:	638b      	str	r3, [r1, #56]	; 0x38
 152:	e783      	b.n	5c <alt_clk_pll_cfg_get+0x5c>
 154:	2a01      	cmp	r2, #1
 156:	bf18      	it	ne
 158:	2203      	movne	r2, #3
 15a:	e7c2      	b.n	e2 <alt_clk_pll_cfg_get+0xe2>
 15c:	f06f 0008 	mvn.w	r0, #8
 160:	e77c      	b.n	5c <alt_clk_pll_cfg_get+0x5c>
 162:	f04f 30ff 	mov.w	r0, #4294967295
 166:	e779      	b.n	5c <alt_clk_pll_cfg_get+0x5c>
 168:	ffd04000 	.word	0xffd04000

Disassembly of section .text.alt_clk_pll_cfg_set:

00000000 <alt_clk_pll_cfg_set>:
   0:	b537      	push	{r0, r1, r2, r4, r5, lr}
   2:	4605      	mov	r5, r0
   4:	460c      	mov	r4, r1
   6:	2900      	cmp	r1, #0
   8:	f000 808a 	beq.w	120 <alt_clk_pll_cfg_set+0x120>
   c:	f7ff fffe 	bl	0 <alt_clk_pll_cfg_set>
  10:	2801      	cmp	r0, #1
  12:	d17d      	bne.n	110 <alt_clk_pll_cfg_set+0x110>
  14:	2d09      	cmp	r5, #9
  16:	d11c      	bne.n	52 <alt_clk_pll_cfg_set+0x52>
  18:	4a43      	ldr	r2, [pc, #268]	; (128 <alt_clk_pll_cfg_set+0x128>)
  1a:	4844      	ldr	r0, [pc, #272]	; (12c <alt_clk_pll_cfg_set+0x12c>)
  1c:	68a1      	ldr	r1, [r4, #8]
  1e:	6c13      	ldr	r3, [r2, #64]	; 0x40
  20:	0409      	lsls	r1, r1, #16
  22:	4018      	ands	r0, r3
  24:	6863      	ldr	r3, [r4, #4]
  26:	f401 117c 	and.w	r1, r1, #4128768	; 0x3f0000
  2a:	00db      	lsls	r3, r3, #3
  2c:	b29b      	uxth	r3, r3
  2e:	430b      	orrs	r3, r1
  30:	4303      	orrs	r3, r0
  32:	6413      	str	r3, [r2, #64]	; 0x40
  34:	68e3      	ldr	r3, [r4, #12]
  36:	6493      	str	r3, [r2, #72]	; 0x48
  38:	6923      	ldr	r3, [r4, #16]
  3a:	64d3      	str	r3, [r2, #76]	; 0x4c
  3c:	6963      	ldr	r3, [r4, #20]
  3e:	6513      	str	r3, [r2, #80]	; 0x50
  40:	69a3      	ldr	r3, [r4, #24]
  42:	6553      	str	r3, [r2, #84]	; 0x54
  44:	69e3      	ldr	r3, [r4, #28]
  46:	6593      	str	r3, [r2, #88]	; 0x58
  48:	6a23      	ldr	r3, [r4, #32]
  4a:	65d3      	str	r3, [r2, #92]	; 0x5c
  4c:	2000      	movs	r0, #0
  4e:	b003      	add	sp, #12
  50:	bd30      	pop	{r4, r5, pc}
  52:	2d0a      	cmp	r5, #10
  54:	d12f      	bne.n	b6 <alt_clk_pll_cfg_set+0xb6>
  56:	4934      	ldr	r1, [pc, #208]	; (128 <alt_clk_pll_cfg_set+0x128>)
  58:	6862      	ldr	r2, [r4, #4]
  5a:	4835      	ldr	r0, [pc, #212]	; (130 <alt_clk_pll_cfg_set+0x130>)
  5c:	f8d1 3080 	ldr.w	r3, [r1, #128]	; 0x80
  60:	4018      	ands	r0, r3
  62:	00d3      	lsls	r3, r2, #3
  64:	68a2      	ldr	r2, [r4, #8]
  66:	b29b      	uxth	r3, r3
  68:	0412      	lsls	r2, r2, #16
  6a:	f402 127c 	and.w	r2, r2, #4128768	; 0x3f0000
  6e:	4313      	orrs	r3, r2
  70:	6822      	ldr	r2, [r4, #0]
  72:	4303      	orrs	r3, r0
  74:	b12a      	cbz	r2, 82 <alt_clk_pll_cfg_set+0x82>
  76:	2a0c      	cmp	r2, #12
  78:	d003      	beq.n	82 <alt_clk_pll_cfg_set+0x82>
  7a:	2a01      	cmp	r2, #1
  7c:	d116      	bne.n	ac <alt_clk_pll_cfg_set+0xac>
  7e:	f443 0380 	orr.w	r3, r3, #4194304	; 0x400000
  82:	f8c1 3080 	str.w	r3, [r1, #128]	; 0x80
  86:	68e3      	ldr	r3, [r4, #12]
  88:	f8c1 3088 	str.w	r3, [r1, #136]	; 0x88
  8c:	6923      	ldr	r3, [r4, #16]
  8e:	f8c1 308c 	str.w	r3, [r1, #140]	; 0x8c
  92:	6963      	ldr	r3, [r4, #20]
  94:	f8c1 3090 	str.w	r3, [r1, #144]	; 0x90
  98:	69a3      	ldr	r3, [r4, #24]
  9a:	f8c1 3094 	str.w	r3, [r1, #148]	; 0x94
  9e:	69e3      	ldr	r3, [r4, #28]
  a0:	f8c1 3098 	str.w	r3, [r1, #152]	; 0x98
  a4:	6a23      	ldr	r3, [r4, #32]
  a6:	f8c1 309c 	str.w	r3, [r1, #156]	; 0x9c
  aa:	e7cf      	b.n	4c <alt_clk_pll_cfg_set+0x4c>
  ac:	2a02      	cmp	r2, #2
  ae:	d12f      	bne.n	110 <alt_clk_pll_cfg_set+0x110>
  b0:	f443 0300 	orr.w	r3, r3, #8388608	; 0x800000
  b4:	e7e5      	b.n	82 <alt_clk_pll_cfg_set+0x82>
  b6:	2d0b      	cmp	r5, #11
  b8:	d12a      	bne.n	110 <alt_clk_pll_cfg_set+0x110>
  ba:	6863      	ldr	r3, [r4, #4]
  bc:	68a2      	ldr	r2, [r4, #8]
  be:	481a      	ldr	r0, [pc, #104]	; (128 <alt_clk_pll_cfg_set+0x128>)
  c0:	00db      	lsls	r3, r3, #3
  c2:	0412      	lsls	r2, r2, #16
  c4:	f402 127c 	and.w	r2, r2, #4128768	; 0x3f0000
  c8:	b29b      	uxth	r3, r3
  ca:	f8d0 10c0 	ldr.w	r1, [r0, #192]	; 0xc0
  ce:	4313      	orrs	r3, r2
  d0:	4a17      	ldr	r2, [pc, #92]	; (130 <alt_clk_pll_cfg_set+0x130>)
  d2:	400a      	ands	r2, r1
  d4:	4313      	orrs	r3, r2
  d6:	6822      	ldr	r2, [r4, #0]
  d8:	f043 7180 	orr.w	r1, r3, #16777216	; 0x1000000
  dc:	b12a      	cbz	r2, ea <alt_clk_pll_cfg_set+0xea>
  de:	2a0c      	cmp	r2, #12
  e0:	d003      	beq.n	ea <alt_clk_pll_cfg_set+0xea>
  e2:	2a01      	cmp	r2, #1
  e4:	d117      	bne.n	116 <alt_clk_pll_cfg_set+0x116>
  e6:	f043 71a0 	orr.w	r1, r3, #20971520	; 0x1400000
  ea:	f8c0 10c0 	str.w	r1, [r0, #192]	; 0xc0
  ee:	4a11      	ldr	r2, [pc, #68]	; (134 <alt_clk_pll_cfg_set+0x134>)
  f0:	6a63      	ldr	r3, [r4, #36]	; 0x24
  f2:	4911      	ldr	r1, [pc, #68]	; (138 <alt_clk_pll_cfg_set+0x138>)
  f4:	4811      	ldr	r0, [pc, #68]	; (13c <alt_clk_pll_cfg_set+0x13c>)
  f6:	ea02 2243 	and.w	r2, r2, r3, lsl #9
  fa:	68e3      	ldr	r3, [r4, #12]
  fc:	2400      	movs	r4, #0
  fe:	e9cd 1400 	strd	r1, r4, [sp]
 102:	490f      	ldr	r1, [pc, #60]	; (140 <alt_clk_pll_cfg_set+0x140>)
 104:	f3c3 0308 	ubfx	r3, r3, #0, #9
 108:	4313      	orrs	r3, r2
 10a:	4a0e      	ldr	r2, [pc, #56]	; (144 <alt_clk_pll_cfg_set+0x144>)
 10c:	f7ff fffe 	bl	0 <alt_clk_pll_cfg_set>
 110:	f04f 30ff 	mov.w	r0, #4294967295
 114:	e79b      	b.n	4e <alt_clk_pll_cfg_set+0x4e>
 116:	2a02      	cmp	r2, #2
 118:	d1fa      	bne.n	110 <alt_clk_pll_cfg_set+0x110>
 11a:	f043 71c0 	orr.w	r1, r3, #25165824	; 0x1800000
 11e:	e7e4      	b.n	ea <alt_clk_pll_cfg_set+0xea>
 120:	f06f 0008 	mvn.w	r0, #8
 124:	e793      	b.n	4e <alt_clk_pll_cfg_set+0x4e>
 126:	bf00      	nop
 128:	ffd04000 	.word	0xffd04000
 12c:	ffc00007 	.word	0xffc00007
 130:	ff000007 	.word	0xff000007
 134:	001ffe00 	.word	0x001ffe00
 138:	001fffff 	.word	0x001fffff
 13c:	ffd040c0 	.word	0xffd040c0
 140:	ffd04014 	.word	0xffd04014
 144:	ffd040c8 	.word	0xffd040c8

Disassembly of section .text.alt_clk_pll_vco_cfg_get:

00000000 <alt_clk_pll_vco_cfg_get>:
   0:	b1d1      	cbz	r1, 38 <alt_clk_pll_vco_cfg_get+0x38>
   2:	b1ca      	cbz	r2, 38 <alt_clk_pll_vco_cfg_get+0x38>
   4:	2809      	cmp	r0, #9
   6:	d10b      	bne.n	20 <alt_clk_pll_vco_cfg_get+0x20>
   8:	4b0e      	ldr	r3, [pc, #56]	; (44 <alt_clk_pll_vco_cfg_get+0x44>)
   a:	6c1b      	ldr	r3, [r3, #64]	; 0x40
   c:	f3c3 00cc 	ubfx	r0, r3, #3, #13
  10:	f3c3 4305 	ubfx	r3, r3, #16, #6
  14:	3001      	adds	r0, #1
  16:	3301      	adds	r3, #1
  18:	6008      	str	r0, [r1, #0]
  1a:	2000      	movs	r0, #0
  1c:	6013      	str	r3, [r2, #0]
  1e:	4770      	bx	lr
  20:	280a      	cmp	r0, #10
  22:	d103      	bne.n	2c <alt_clk_pll_vco_cfg_get+0x2c>
  24:	4b07      	ldr	r3, [pc, #28]	; (44 <alt_clk_pll_vco_cfg_get+0x44>)
  26:	f8d3 3080 	ldr.w	r3, [r3, #128]	; 0x80
  2a:	e7ef      	b.n	c <alt_clk_pll_vco_cfg_get+0xc>
  2c:	280b      	cmp	r0, #11
  2e:	d106      	bne.n	3e <alt_clk_pll_vco_cfg_get+0x3e>
  30:	4b04      	ldr	r3, [pc, #16]	; (44 <alt_clk_pll_vco_cfg_get+0x44>)
  32:	f8d3 30c0 	ldr.w	r3, [r3, #192]	; 0xc0
  36:	e7e9      	b.n	c <alt_clk_pll_vco_cfg_get+0xc>
  38:	f06f 0008 	mvn.w	r0, #8
  3c:	4770      	bx	lr
  3e:	f04f 30ff 	mov.w	r0, #4294967295
  42:	4770      	bx	lr
  44:	ffd04000 	.word	0xffd04000

Disassembly of section .text.alt_clk_pll_vco_cfg_set:

00000000 <alt_clk_pll_vco_cfg_set>:
   0:	e92d 4df0 	stmdb	sp!, {r4, r5, r6, r7, r8, sl, fp, lr}
   4:	1e4b      	subs	r3, r1, #1
   6:	4605      	mov	r5, r0
   8:	b086      	sub	sp, #24
   a:	4688      	mov	r8, r1
   c:	f5b3 5f80 	cmp.w	r3, #4096	; 0x1000
  10:	9301      	str	r3, [sp, #4]
  12:	f080 8134 	bcs.w	27e <alt_clk_pll_vco_cfg_set+0x27e>
  16:	1e53      	subs	r3, r2, #1
  18:	9302      	str	r3, [sp, #8]
  1a:	2b3f      	cmp	r3, #63	; 0x3f
  1c:	f200 812f 	bhi.w	27e <alt_clk_pll_vco_cfg_set+0x27e>
  20:	2809      	cmp	r0, #9
  22:	d111      	bne.n	48 <alt_clk_pll_vco_cfg_set+0x48>
  24:	4bb4      	ldr	r3, [pc, #720]	; (2f8 <alt_clk_pll_vco_cfg_set+0x2f8>)
  26:	6c1e      	ldr	r6, [r3, #64]	; 0x40
  28:	4bb4      	ldr	r3, [pc, #720]	; (2fc <alt_clk_pll_vco_cfg_set+0x2fc>)
  2a:	f3c6 07cc 	ubfx	r7, r6, #3, #13
  2e:	f3c6 4605 	ubfx	r6, r6, #16, #6
  32:	f893 403c 	ldrb.w	r4, [r3, #60]	; 0x3c
  36:	f8d3 b038 	ldr.w	fp, [r3, #56]	; 0x38
  3a:	f8d3 a034 	ldr.w	sl, [r3, #52]	; 0x34
  3e:	f004 047f 	and.w	r4, r4, #127	; 0x7f
  42:	4baf      	ldr	r3, [pc, #700]	; (300 <alt_clk_pll_vco_cfg_set+0x300>)
  44:	681b      	ldr	r3, [r3, #0]
  46:	e021      	b.n	8c <alt_clk_pll_vco_cfg_set+0x8c>
  48:	280a      	cmp	r0, #10
  4a:	f040 809b 	bne.w	184 <alt_clk_pll_vco_cfg_set+0x184>
  4e:	4baa      	ldr	r3, [pc, #680]	; (2f8 <alt_clk_pll_vco_cfg_set+0x2f8>)
  50:	49aa      	ldr	r1, [pc, #680]	; (2fc <alt_clk_pll_vco_cfg_set+0x2fc>)
  52:	f8d3 3080 	ldr.w	r3, [r3, #128]	; 0x80
  56:	f891 404c 	ldrb.w	r4, [r1, #76]	; 0x4c
  5a:	f8d1 b048 	ldr.w	fp, [r1, #72]	; 0x48
  5e:	f413 0f40 	tst.w	r3, #12582912	; 0xc00000
  62:	f8d1 a044 	ldr.w	sl, [r1, #68]	; 0x44
  66:	f3c3 07cc 	ubfx	r7, r3, #3, #13
  6a:	f3c3 4605 	ubfx	r6, r3, #16, #6
  6e:	f004 047f 	and.w	r4, r4, #127	; 0x7f
  72:	f3c3 5181 	ubfx	r1, r3, #22, #2
  76:	d0e4      	beq.n	42 <alt_clk_pll_vco_cfg_set+0x42>
  78:	2901      	cmp	r1, #1
  7a:	d102      	bne.n	82 <alt_clk_pll_vco_cfg_set+0x82>
  7c:	4ba0      	ldr	r3, [pc, #640]	; (300 <alt_clk_pll_vco_cfg_set+0x300>)
  7e:	691b      	ldr	r3, [r3, #16]
  80:	e004      	b.n	8c <alt_clk_pll_vco_cfg_set+0x8c>
  82:	2902      	cmp	r1, #2
  84:	f040 80fb 	bne.w	27e <alt_clk_pll_vco_cfg_set+0x27e>
  88:	4b9d      	ldr	r3, [pc, #628]	; (300 <alt_clk_pll_vco_cfg_set+0x300>)
  8a:	6a1b      	ldr	r3, [r3, #32]
  8c:	4611      	mov	r1, r2
  8e:	4618      	mov	r0, r3
  90:	9205      	str	r2, [sp, #20]
  92:	9304      	str	r3, [sp, #16]
  94:	f7ff fffe 	bl	0 <__aeabi_uidiv>
  98:	fb00 f108 	mul.w	r1, r0, r8
  9c:	9003      	str	r0, [sp, #12]
  9e:	4559      	cmp	r1, fp
  a0:	f200 80ed 	bhi.w	27e <alt_clk_pll_vco_cfg_set+0x27e>
  a4:	4551      	cmp	r1, sl
  a6:	f0c0 80ea 	bcc.w	27e <alt_clk_pll_vco_cfg_set+0x27e>
  aa:	1c7b      	adds	r3, r7, #1
  ac:	9a05      	ldr	r2, [sp, #20]
  ae:	4598      	cmp	r8, r3
  b0:	9300      	str	r3, [sp, #0]
  b2:	f106 0601 	add.w	r6, r6, #1
  b6:	9b04      	ldr	r3, [sp, #16]
  b8:	d102      	bne.n	c0 <alt_clk_pll_vco_cfg_set+0xc0>
  ba:	42b2      	cmp	r2, r6
  bc:	f000 8128 	beq.w	310 <alt_clk_pll_vco_cfg_set+0x310>
  c0:	9305      	str	r3, [sp, #20]
  c2:	f104 0364 	add.w	r3, r4, #100	; 0x64
  c6:	9304      	str	r3, [sp, #16]
  c8:	2064      	movs	r0, #100	; 0x64
  ca:	9b00      	ldr	r3, [sp, #0]
  cc:	4598      	cmp	r8, r3
  ce:	d07b      	beq.n	1c8 <alt_clk_pll_vco_cfg_set+0x1c8>
  d0:	4619      	mov	r1, r3
  d2:	fb00 f008 	mul.w	r0, r0, r8
  d6:	9204      	str	r2, [sp, #16]
  d8:	f7ff fffe 	bl	0 <__aeabi_uidiv>
  dc:	9a04      	ldr	r2, [sp, #16]
  de:	9b05      	ldr	r3, [sp, #20]
  e0:	42b2      	cmp	r2, r6
  e2:	f040 808d 	bne.w	200 <alt_clk_pll_vco_cfg_set+0x200>
  e6:	f104 0264 	add.w	r2, r4, #100	; 0x64
  ea:	4282      	cmp	r2, r0
  ec:	d96a      	bls.n	1c4 <alt_clk_pll_vco_cfg_set+0x1c4>
  ee:	f1c4 0764 	rsb	r7, r4, #100	; 0x64
  f2:	42b8      	cmp	r0, r7
  f4:	bf94      	ite	ls
  f6:	2700      	movls	r7, #0
  f8:	2701      	movhi	r7, #1
  fa:	4631      	mov	r1, r6
  fc:	4618      	mov	r0, r3
  fe:	f7ff fffe 	bl	0 <__aeabi_uidiv>
 102:	fb08 f800 	mul.w	r8, r8, r0
 106:	45c3      	cmp	fp, r8
 108:	f0c0 80b9 	bcc.w	27e <alt_clk_pll_vco_cfg_set+0x27e>
 10c:	45c2      	cmp	sl, r8
 10e:	f200 80b6 	bhi.w	27e <alt_clk_pll_vco_cfg_set+0x27e>
 112:	2f00      	cmp	r7, #0
 114:	bf0c      	ite	eq
 116:	2706      	moveq	r7, #6
 118:	2702      	movne	r7, #2
 11a:	2d09      	cmp	r5, #9
 11c:	f000 80b2 	beq.w	284 <alt_clk_pll_vco_cfg_set+0x284>
 120:	2d0a      	cmp	r5, #10
 122:	f000 80b1 	beq.w	288 <alt_clk_pll_vco_cfg_set+0x288>
 126:	2d0b      	cmp	r5, #11
 128:	f040 80f5 	bne.w	316 <alt_clk_pll_vco_cfg_set+0x316>
 12c:	4e75      	ldr	r6, [pc, #468]	; (304 <alt_clk_pll_vco_cfg_set+0x304>)
 12e:	f017 0102 	ands.w	r1, r7, #2
 132:	f000 80ab 	beq.w	28c <alt_clk_pll_vco_cfg_set+0x28c>
 136:	f017 0804 	ands.w	r8, r7, #4
 13a:	d009      	beq.n	150 <alt_clk_pll_vco_cfg_set+0x150>
 13c:	2100      	movs	r1, #0
 13e:	4628      	mov	r0, r5
 140:	f04f 0801 	mov.w	r8, #1
 144:	f7ff fffe 	bl	0 <alt_clk_pll_vco_cfg_set>
 148:	4630      	mov	r0, r6
 14a:	211e      	movs	r1, #30
 14c:	f7ff fffe 	bl	0 <alt_clk_pll_vco_cfg_set>
 150:	6833      	ldr	r3, [r6, #0]
 152:	9a01      	ldr	r2, [sp, #4]
 154:	f423 437f 	bic.w	r3, r3, #65280	; 0xff00
 158:	f023 03f8 	bic.w	r3, r3, #248	; 0xf8
 15c:	ea43 03c2 	orr.w	r3, r3, r2, lsl #3
 160:	6033      	str	r3, [r6, #0]
 162:	f7ff fffe 	bl	0 <alt_clk_pll_vco_cfg_set>
 166:	4604      	mov	r4, r0
 168:	f1b8 0f00 	cmp.w	r8, #0
 16c:	d006      	beq.n	17c <alt_clk_pll_vco_cfg_set+0x17c>
 16e:	4628      	mov	r0, r5
 170:	f7ff fffe 	bl	0 <alt_clk_pll_vco_cfg_set>
 174:	4630      	mov	r0, r6
 176:	211e      	movs	r1, #30
 178:	f7ff fffe 	bl	0 <alt_clk_pll_vco_cfg_set>
 17c:	4620      	mov	r0, r4
 17e:	b006      	add	sp, #24
 180:	e8bd 8df0 	ldmia.w	sp!, {r4, r5, r6, r7, r8, sl, fp, pc}
 184:	280b      	cmp	r0, #11
 186:	d17a      	bne.n	27e <alt_clk_pll_vco_cfg_set+0x27e>
 188:	4b5b      	ldr	r3, [pc, #364]	; (2f8 <alt_clk_pll_vco_cfg_set+0x2f8>)
 18a:	495c      	ldr	r1, [pc, #368]	; (2fc <alt_clk_pll_vco_cfg_set+0x2fc>)
 18c:	f8d3 30c0 	ldr.w	r3, [r3, #192]	; 0xc0
 190:	f891 405c 	ldrb.w	r4, [r1, #92]	; 0x5c
 194:	f8d1 b058 	ldr.w	fp, [r1, #88]	; 0x58
 198:	f413 0f40 	tst.w	r3, #12582912	; 0xc00000
 19c:	f8d1 a054 	ldr.w	sl, [r1, #84]	; 0x54
 1a0:	f3c3 07cc 	ubfx	r7, r3, #3, #13
 1a4:	f3c3 4605 	ubfx	r6, r3, #16, #6
 1a8:	f004 047f 	and.w	r4, r4, #127	; 0x7f
 1ac:	f3c3 5181 	ubfx	r1, r3, #22, #2
 1b0:	f43f af47 	beq.w	42 <alt_clk_pll_vco_cfg_set+0x42>
 1b4:	2901      	cmp	r1, #1
 1b6:	f43f af61 	beq.w	7c <alt_clk_pll_vco_cfg_set+0x7c>
 1ba:	2902      	cmp	r1, #2
 1bc:	d15f      	bne.n	27e <alt_clk_pll_vco_cfg_set+0x27e>
 1be:	4b50      	ldr	r3, [pc, #320]	; (300 <alt_clk_pll_vco_cfg_set+0x300>)
 1c0:	6b1b      	ldr	r3, [r3, #48]	; 0x30
 1c2:	e763      	b.n	8c <alt_clk_pll_vco_cfg_set+0x8c>
 1c4:	2700      	movs	r7, #0
 1c6:	e798      	b.n	fa <alt_clk_pll_vco_cfg_set+0xfa>
 1c8:	4350      	muls	r0, r2
 1ca:	4631      	mov	r1, r6
 1cc:	f7ff fffe 	bl	0 <__aeabi_uidiv>
 1d0:	f104 0364 	add.w	r3, r4, #100	; 0x64
 1d4:	4283      	cmp	r3, r0
 1d6:	d911      	bls.n	1fc <alt_clk_pll_vco_cfg_set+0x1fc>
 1d8:	f1c4 0464 	rsb	r4, r4, #100	; 0x64
 1dc:	42a0      	cmp	r0, r4
 1de:	bf94      	ite	ls
 1e0:	2400      	movls	r4, #0
 1e2:	2401      	movhi	r4, #1
 1e4:	9803      	ldr	r0, [sp, #12]
 1e6:	9b00      	ldr	r3, [sp, #0]
 1e8:	4358      	muls	r0, r3
 1ea:	4583      	cmp	fp, r0
 1ec:	d347      	bcc.n	27e <alt_clk_pll_vco_cfg_set+0x27e>
 1ee:	4582      	cmp	sl, r0
 1f0:	d845      	bhi.n	27e <alt_clk_pll_vco_cfg_set+0x27e>
 1f2:	2c00      	cmp	r4, #0
 1f4:	bf0c      	ite	eq
 1f6:	2718      	moveq	r7, #24
 1f8:	2708      	movne	r7, #8
 1fa:	e78e      	b.n	11a <alt_clk_pll_vco_cfg_set+0x11a>
 1fc:	2400      	movs	r4, #0
 1fe:	e7f1      	b.n	1e4 <alt_clk_pll_vco_cfg_set+0x1e4>
 200:	f104 0164 	add.w	r1, r4, #100	; 0x64
 204:	4281      	cmp	r1, r0
 206:	d931      	bls.n	26c <alt_clk_pll_vco_cfg_set+0x26c>
 208:	f1c4 0764 	rsb	r7, r4, #100	; 0x64
 20c:	42b8      	cmp	r0, r7
 20e:	bf94      	ite	ls
 210:	2700      	movls	r7, #0
 212:	2701      	movhi	r7, #1
 214:	4631      	mov	r1, r6
 216:	4618      	mov	r0, r3
 218:	9204      	str	r2, [sp, #16]
 21a:	f7ff fffe 	bl	0 <__aeabi_uidiv>
 21e:	fb08 f800 	mul.w	r8, r8, r0
 222:	9a04      	ldr	r2, [sp, #16]
 224:	45c3      	cmp	fp, r8
 226:	d323      	bcc.n	270 <alt_clk_pll_vco_cfg_set+0x270>
 228:	45c2      	cmp	sl, r8
 22a:	d821      	bhi.n	270 <alt_clk_pll_vco_cfg_set+0x270>
 22c:	2f00      	cmp	r7, #0
 22e:	bf14      	ite	ne
 230:	2720      	movne	r7, #32
 232:	2760      	moveq	r7, #96	; 0x60
 234:	2064      	movs	r0, #100	; 0x64
 236:	4631      	mov	r1, r6
 238:	4350      	muls	r0, r2
 23a:	f7ff fffe 	bl	0 <__aeabi_uidiv>
 23e:	f104 0364 	add.w	r3, r4, #100	; 0x64
 242:	4283      	cmp	r3, r0
 244:	d916      	bls.n	274 <alt_clk_pll_vco_cfg_set+0x274>
 246:	f1c4 0464 	rsb	r4, r4, #100	; 0x64
 24a:	42a0      	cmp	r0, r4
 24c:	bf94      	ite	ls
 24e:	2400      	movls	r4, #0
 250:	2401      	movhi	r4, #1
 252:	9803      	ldr	r0, [sp, #12]
 254:	9b00      	ldr	r3, [sp, #0]
 256:	4358      	muls	r0, r3
 258:	4583      	cmp	fp, r0
 25a:	d30d      	bcc.n	278 <alt_clk_pll_vco_cfg_set+0x278>
 25c:	4582      	cmp	sl, r0
 25e:	d80b      	bhi.n	278 <alt_clk_pll_vco_cfg_set+0x278>
 260:	2c00      	cmp	r4, #0
 262:	bf0c      	ite	eq
 264:	f44f 77c0 	moveq.w	r7, #384	; 0x180
 268:	2780      	movne	r7, #128	; 0x80
 26a:	e756      	b.n	11a <alt_clk_pll_vco_cfg_set+0x11a>
 26c:	2700      	movs	r7, #0
 26e:	e7d1      	b.n	214 <alt_clk_pll_vco_cfg_set+0x214>
 270:	2700      	movs	r7, #0
 272:	e7df      	b.n	234 <alt_clk_pll_vco_cfg_set+0x234>
 274:	2400      	movs	r4, #0
 276:	e7ec      	b.n	252 <alt_clk_pll_vco_cfg_set+0x252>
 278:	2f00      	cmp	r7, #0
 27a:	f47f af4e 	bne.w	11a <alt_clk_pll_vco_cfg_set+0x11a>
 27e:	f06f 040d 	mvn.w	r4, #13
 282:	e77b      	b.n	17c <alt_clk_pll_vco_cfg_set+0x17c>
 284:	4e20      	ldr	r6, [pc, #128]	; (308 <alt_clk_pll_vco_cfg_set+0x308>)
 286:	e752      	b.n	12e <alt_clk_pll_vco_cfg_set+0x12e>
 288:	4e20      	ldr	r6, [pc, #128]	; (30c <alt_clk_pll_vco_cfg_set+0x30c>)
 28a:	e750      	b.n	12e <alt_clk_pll_vco_cfg_set+0x12e>
 28c:	f017 0208 	ands.w	r2, r7, #8
 290:	d00e      	beq.n	2b0 <alt_clk_pll_vco_cfg_set+0x2b0>
 292:	f017 0810 	ands.w	r8, r7, #16
 296:	d004      	beq.n	2a2 <alt_clk_pll_vco_cfg_set+0x2a2>
 298:	f04f 0801 	mov.w	r8, #1
 29c:	4628      	mov	r0, r5
 29e:	f7ff fffe 	bl	0 <alt_clk_pll_vco_cfg_set>
 2a2:	6833      	ldr	r3, [r6, #0]
 2a4:	9a02      	ldr	r2, [sp, #8]
 2a6:	f423 137c 	bic.w	r3, r3, #4128768	; 0x3f0000
 2aa:	ea43 4302 	orr.w	r3, r3, r2, lsl #16
 2ae:	e757      	b.n	160 <alt_clk_pll_vco_cfg_set+0x160>
 2b0:	f017 0120 	ands.w	r1, r7, #32
 2b4:	d009      	beq.n	2ca <alt_clk_pll_vco_cfg_set+0x2ca>
 2b6:	f017 0840 	ands.w	r8, r7, #64	; 0x40
 2ba:	d00d      	beq.n	2d8 <alt_clk_pll_vco_cfg_set+0x2d8>
 2bc:	4611      	mov	r1, r2
 2be:	4628      	mov	r0, r5
 2c0:	f04f 0801 	mov.w	r8, #1
 2c4:	f7ff fffe 	bl	0 <alt_clk_pll_vco_cfg_set>
 2c8:	e006      	b.n	2d8 <alt_clk_pll_vco_cfg_set+0x2d8>
 2ca:	f017 0880 	ands.w	r8, r7, #128	; 0x80
 2ce:	f43f af48 	beq.w	162 <alt_clk_pll_vco_cfg_set+0x162>
 2d2:	f417 7880 	ands.w	r8, r7, #256	; 0x100
 2d6:	d1f2      	bne.n	2be <alt_clk_pll_vco_cfg_set+0x2be>
 2d8:	6833      	ldr	r3, [r6, #0]
 2da:	9a01      	ldr	r2, [sp, #4]
 2dc:	f423 437f 	bic.w	r3, r3, #65280	; 0xff00
 2e0:	f023 03f8 	bic.w	r3, r3, #248	; 0xf8
 2e4:	ea43 03c2 	orr.w	r3, r3, r2, lsl #3
 2e8:	6033      	str	r3, [r6, #0]
 2ea:	f1b8 0f00 	cmp.w	r8, #0
 2ee:	d1d8      	bne.n	2a2 <alt_clk_pll_vco_cfg_set+0x2a2>
 2f0:	f7ff fffe 	bl	0 <alt_clk_pll_vco_cfg_set>
 2f4:	e7d5      	b.n	2a2 <alt_clk_pll_vco_cfg_set+0x2a2>
 2f6:	bf00      	nop
 2f8:	ffd04000 	.word	0xffd04000
	...
 304:	ffd040c0 	.word	0xffd040c0
 308:	ffd04040 	.word	0xffd04040
 30c:	ffd04080 	.word	0xffd04080
 310:	f06f 040a 	mvn.w	r4, #10
 314:	e732      	b.n	17c <alt_clk_pll_vco_cfg_set+0x17c>
 316:	f06f 0408 	mvn.w	r4, #8
 31a:	e72f      	b.n	17c <alt_clk_pll_vco_cfg_set+0x17c>

Disassembly of section .text.alt_clk_pll_vco_freq_get:

00000000 <alt_clk_pll_vco_freq_get>:
   0:	b5f8      	push	{r3, r4, r5, r6, r7, lr}
   2:	460d      	mov	r5, r1
   4:	2900      	cmp	r1, #0
   6:	f000 809e 	beq.w	146 <alt_clk_pll_vco_freq_get+0x146>
   a:	2809      	cmp	r0, #9
   c:	d120      	bne.n	50 <alt_clk_pll_vco_freq_get+0x50>
   e:	4a4f      	ldr	r2, [pc, #316]	; (14c <alt_clk_pll_vco_freq_get+0x14c>)
  10:	4b4f      	ldr	r3, [pc, #316]	; (150 <alt_clk_pll_vco_freq_get+0x150>)
  12:	6854      	ldr	r4, [r2, #4]
  14:	6818      	ldr	r0, [r3, #0]
  16:	f014 0401 	ands.w	r4, r4, #1
  1a:	d002      	beq.n	22 <alt_clk_pll_vco_freq_get+0x22>
  1c:	6008      	str	r0, [r1, #0]
  1e:	2000      	movs	r0, #0
  20:	bdf8      	pop	{r3, r4, r5, r6, r7, pc}
  22:	6c12      	ldr	r2, [r2, #64]	; 0x40
  24:	4623      	mov	r3, r4
  26:	f3c2 01cc 	ubfx	r1, r2, #3, #13
  2a:	f3c2 4205 	ubfx	r2, r2, #16, #6
  2e:	3101      	adds	r1, #1
  30:	3201      	adds	r2, #1
  32:	fba1 0100 	umull	r0, r1, r1, r0
  36:	f7ff fffe 	bl	0 <__aeabi_uldivmod>
  3a:	4603      	mov	r3, r0
  3c:	f04f 30ff 	mov.w	r0, #4294967295
  40:	4298      	cmp	r0, r3
  42:	eb74 0201 	sbcs.w	r2, r4, r1
  46:	d3eb      	bcc.n	20 <alt_clk_pll_vco_freq_get+0x20>
  48:	4a42      	ldr	r2, [pc, #264]	; (154 <alt_clk_pll_vco_freq_get+0x154>)
  4a:	6313      	str	r3, [r2, #48]	; 0x30
  4c:	602b      	str	r3, [r5, #0]
  4e:	e7e6      	b.n	1e <alt_clk_pll_vco_freq_get+0x1e>
  50:	280a      	cmp	r0, #10
  52:	d13c      	bne.n	ce <alt_clk_pll_vco_freq_get+0xce>
  54:	4a3d      	ldr	r2, [pc, #244]	; (14c <alt_clk_pll_vco_freq_get+0x14c>)
  56:	6853      	ldr	r3, [r2, #4]
  58:	f013 0108 	ands.w	r1, r3, #8
  5c:	d007      	beq.n	6e <alt_clk_pll_vco_freq_get+0x6e>
  5e:	06da      	lsls	r2, r3, #27
  60:	d402      	bmi.n	68 <alt_clk_pll_vco_freq_get+0x68>
  62:	4b3b      	ldr	r3, [pc, #236]	; (150 <alt_clk_pll_vco_freq_get+0x150>)
  64:	681b      	ldr	r3, [r3, #0]
  66:	e7f1      	b.n	4c <alt_clk_pll_vco_freq_get+0x4c>
  68:	4b39      	ldr	r3, [pc, #228]	; (150 <alt_clk_pll_vco_freq_get+0x150>)
  6a:	6a1b      	ldr	r3, [r3, #32]
  6c:	e7ee      	b.n	4c <alt_clk_pll_vco_freq_get+0x4c>
  6e:	f8d2 3080 	ldr.w	r3, [r2, #128]	; 0x80
  72:	f413 0f40 	tst.w	r3, #12582912	; 0xc00000
  76:	f3c3 07cc 	ubfx	r7, r3, #3, #13
  7a:	f3c3 4205 	ubfx	r2, r3, #16, #6
  7e:	f3c3 5481 	ubfx	r4, r3, #22, #2
  82:	d11a      	bne.n	ba <alt_clk_pll_vco_freq_get+0xba>
  84:	4b32      	ldr	r3, [pc, #200]	; (150 <alt_clk_pll_vco_freq_get+0x150>)
  86:	4621      	mov	r1, r4
  88:	6818      	ldr	r0, [r3, #0]
  8a:	2800      	cmp	r0, #0
  8c:	d05b      	beq.n	146 <alt_clk_pll_vco_freq_get+0x146>
  8e:	1c7c      	adds	r4, r7, #1
  90:	fb07 1101 	mla	r1, r7, r1, r1
  94:	3201      	adds	r2, #1
  96:	2600      	movs	r6, #0
  98:	4633      	mov	r3, r6
  9a:	fba4 0400 	umull	r0, r4, r4, r0
  9e:	4421      	add	r1, r4
  a0:	f7ff fffe 	bl	0 <__aeabi_uldivmod>
  a4:	4602      	mov	r2, r0
  a6:	f04f 30ff 	mov.w	r0, #4294967295
  aa:	4290      	cmp	r0, r2
  ac:	eb76 0301 	sbcs.w	r3, r6, r1
  b0:	d3b6      	bcc.n	20 <alt_clk_pll_vco_freq_get+0x20>
  b2:	4b28      	ldr	r3, [pc, #160]	; (154 <alt_clk_pll_vco_freq_get+0x154>)
  b4:	641a      	str	r2, [r3, #64]	; 0x40
  b6:	602a      	str	r2, [r5, #0]
  b8:	e7b1      	b.n	1e <alt_clk_pll_vco_freq_get+0x1e>
  ba:	2c01      	cmp	r4, #1
  bc:	d102      	bne.n	c4 <alt_clk_pll_vco_freq_get+0xc4>
  be:	4b24      	ldr	r3, [pc, #144]	; (150 <alt_clk_pll_vco_freq_get+0x150>)
  c0:	6918      	ldr	r0, [r3, #16]
  c2:	e7e2      	b.n	8a <alt_clk_pll_vco_freq_get+0x8a>
  c4:	2c02      	cmp	r4, #2
  c6:	d13e      	bne.n	146 <alt_clk_pll_vco_freq_get+0x146>
  c8:	4b21      	ldr	r3, [pc, #132]	; (150 <alt_clk_pll_vco_freq_get+0x150>)
  ca:	6a18      	ldr	r0, [r3, #32]
  cc:	e7dd      	b.n	8a <alt_clk_pll_vco_freq_get+0x8a>
  ce:	280b      	cmp	r0, #11
  d0:	d139      	bne.n	146 <alt_clk_pll_vco_freq_get+0x146>
  d2:	4b1e      	ldr	r3, [pc, #120]	; (14c <alt_clk_pll_vco_freq_get+0x14c>)
  d4:	685a      	ldr	r2, [r3, #4]
  d6:	0054      	lsls	r4, r2, #1
  d8:	f014 0402 	ands.w	r4, r4, #2
  dc:	d004      	beq.n	e8 <alt_clk_pll_vco_freq_get+0xe8>
  de:	0753      	lsls	r3, r2, #29
  e0:	d5bf      	bpl.n	62 <alt_clk_pll_vco_freq_get+0x62>
  e2:	4b1b      	ldr	r3, [pc, #108]	; (150 <alt_clk_pll_vco_freq_get+0x150>)
  e4:	6b1b      	ldr	r3, [r3, #48]	; 0x30
  e6:	e7b1      	b.n	4c <alt_clk_pll_vco_freq_get+0x4c>
  e8:	f8d3 30c0 	ldr.w	r3, [r3, #192]	; 0xc0
  ec:	f413 0f40 	tst.w	r3, #12582912	; 0xc00000
  f0:	f3c3 07cc 	ubfx	r7, r3, #3, #13
  f4:	f3c3 4205 	ubfx	r2, r3, #16, #6
  f8:	f3c3 5181 	ubfx	r1, r3, #22, #2
  fc:	d119      	bne.n	132 <alt_clk_pll_vco_freq_get+0x132>
  fe:	4b14      	ldr	r3, [pc, #80]	; (150 <alt_clk_pll_vco_freq_get+0x150>)
 100:	460c      	mov	r4, r1
 102:	6818      	ldr	r0, [r3, #0]
 104:	b1f8      	cbz	r0, 146 <alt_clk_pll_vco_freq_get+0x146>
 106:	1c79      	adds	r1, r7, #1
 108:	fb07 4404 	mla	r4, r7, r4, r4
 10c:	3201      	adds	r2, #1
 10e:	2600      	movs	r6, #0
 110:	4633      	mov	r3, r6
 112:	fba1 0100 	umull	r0, r1, r1, r0
 116:	4421      	add	r1, r4
 118:	f7ff fffe 	bl	0 <__aeabi_uldivmod>
 11c:	4602      	mov	r2, r0
 11e:	f04f 30ff 	mov.w	r0, #4294967295
 122:	4290      	cmp	r0, r2
 124:	eb76 0301 	sbcs.w	r3, r6, r1
 128:	f4ff af7a 	bcc.w	20 <alt_clk_pll_vco_freq_get+0x20>
 12c:	4b09      	ldr	r3, [pc, #36]	; (154 <alt_clk_pll_vco_freq_get+0x154>)
 12e:	651a      	str	r2, [r3, #80]	; 0x50
 130:	e7c1      	b.n	b6 <alt_clk_pll_vco_freq_get+0xb6>
 132:	2901      	cmp	r1, #1
 134:	d102      	bne.n	13c <alt_clk_pll_vco_freq_get+0x13c>
 136:	4b06      	ldr	r3, [pc, #24]	; (150 <alt_clk_pll_vco_freq_get+0x150>)
 138:	6918      	ldr	r0, [r3, #16]
 13a:	e7e3      	b.n	104 <alt_clk_pll_vco_freq_get+0x104>
 13c:	2902      	cmp	r1, #2
 13e:	d102      	bne.n	146 <alt_clk_pll_vco_freq_get+0x146>
 140:	4b03      	ldr	r3, [pc, #12]	; (150 <alt_clk_pll_vco_freq_get+0x150>)
 142:	6b18      	ldr	r0, [r3, #48]	; 0x30
 144:	e7de      	b.n	104 <alt_clk_pll_vco_freq_get+0x104>
 146:	f06f 0008 	mvn.w	r0, #8
 14a:	e769      	b.n	20 <alt_clk_pll_vco_freq_get+0x20>
 14c:	ffd04000 	.word	0xffd04000
	...

Disassembly of section .text.alt_clk_within_freq_limits:

00000000 <alt_clk_within_freq_limits>:
   0:	b5f7      	push	{r0, r1, r2, r4, r5, r6, r7, lr}
   2:	2300      	movs	r3, #0
   4:	460e      	mov	r6, r1
   6:	9301      	str	r3, [sp, #4]
   8:	2900      	cmp	r1, #0
   a:	d072      	beq.n	f2 <alt_clk_within_freq_limits+0xf2>
   c:	380d      	subs	r0, #13
   e:	282f      	cmp	r0, #47	; 0x2f
  10:	d86f      	bhi.n	f2 <alt_clk_within_freq_limits+0xf2>
  12:	e8df f000 	tbb	[pc, r0]
  16:	2f18      	.short	0x2f18
  18:	413e3532 	.word	0x413e3532
  1c:	6e6e6e6e 	.word	0x6e6e6e6e
  20:	6e6e6e6e 	.word	0x6e6e6e6e
  24:	6e6e6e6e 	.word	0x6e6e6e6e
  28:	6e6e6e6e 	.word	0x6e6e6e6e
  2c:	49446e6e 	.word	0x49446e6e
  30:	55524f4c 	.word	0x55524f4c
  34:	6e6e6e6e 	.word	0x6e6e6e6e
  38:	6e6e6e6e 	.word	0x6e6e6e6e
  3c:	6e6e6e6e 	.word	0x6e6e6e6e
  40:	6e64615c 	.word	0x6e64615c
  44:	676e      	.short	0x676e
  46:	4b2c      	ldr	r3, [pc, #176]	; (f8 <alt_clk_within_freq_limits+0xf8>)
  48:	681d      	ldr	r5, [r3, #0]
  4a:	4b2c      	ldr	r3, [pc, #176]	; (fc <alt_clk_within_freq_limits+0xfc>)
  4c:	a901      	add	r1, sp, #4
  4e:	2009      	movs	r0, #9
  50:	681f      	ldr	r7, [r3, #0]
  52:	f7ff fffe 	bl	0 <alt_clk_within_freq_limits>
  56:	4604      	mov	r4, r0
  58:	b94c      	cbnz	r4, 6e <alt_clk_within_freq_limits+0x6e>
  5a:	9801      	ldr	r0, [sp, #4]
  5c:	4631      	mov	r1, r6
  5e:	f7ff fffe 	bl	0 <__aeabi_uidiv>
  62:	42a8      	cmp	r0, r5
  64:	d803      	bhi.n	6e <alt_clk_within_freq_limits+0x6e>
  66:	42b8      	cmp	r0, r7
  68:	bf34      	ite	cc
  6a:	2400      	movcc	r4, #0
  6c:	2401      	movcs	r4, #1
  6e:	4620      	mov	r0, r4
  70:	b003      	add	sp, #12
  72:	bdf0      	pop	{r4, r5, r6, r7, pc}
  74:	4b20      	ldr	r3, [pc, #128]	; (f8 <alt_clk_within_freq_limits+0xf8>)
  76:	685d      	ldr	r5, [r3, #4]
  78:	e7e7      	b.n	4a <alt_clk_within_freq_limits+0x4a>
  7a:	4b1f      	ldr	r3, [pc, #124]	; (f8 <alt_clk_within_freq_limits+0xf8>)
  7c:	689d      	ldr	r5, [r3, #8]
  7e:	e7e4      	b.n	4a <alt_clk_within_freq_limits+0x4a>
  80:	4b1d      	ldr	r3, [pc, #116]	; (f8 <alt_clk_within_freq_limits+0xf8>)
  82:	a901      	add	r1, sp, #4
  84:	2009      	movs	r0, #9
  86:	68dd      	ldr	r5, [r3, #12]
  88:	f7ff fffe 	bl	0 <alt_clk_within_freq_limits>
  8c:	2700      	movs	r7, #0
  8e:	4604      	mov	r4, r0
  90:	e7e2      	b.n	58 <alt_clk_within_freq_limits+0x58>
  92:	4b19      	ldr	r3, [pc, #100]	; (f8 <alt_clk_within_freq_limits+0xf8>)
  94:	691d      	ldr	r5, [r3, #16]
  96:	e7d8      	b.n	4a <alt_clk_within_freq_limits+0x4a>
  98:	4b17      	ldr	r3, [pc, #92]	; (f8 <alt_clk_within_freq_limits+0xf8>)
  9a:	695d      	ldr	r5, [r3, #20]
  9c:	e7d5      	b.n	4a <alt_clk_within_freq_limits+0x4a>
  9e:	4b16      	ldr	r3, [pc, #88]	; (f8 <alt_clk_within_freq_limits+0xf8>)
  a0:	699d      	ldr	r5, [r3, #24]
  a2:	a901      	add	r1, sp, #4
  a4:	200a      	movs	r0, #10
  a6:	e7ef      	b.n	88 <alt_clk_within_freq_limits+0x88>
  a8:	4b13      	ldr	r3, [pc, #76]	; (f8 <alt_clk_within_freq_limits+0xf8>)
  aa:	69dd      	ldr	r5, [r3, #28]
  ac:	e7f9      	b.n	a2 <alt_clk_within_freq_limits+0xa2>
  ae:	4b12      	ldr	r3, [pc, #72]	; (f8 <alt_clk_within_freq_limits+0xf8>)
  b0:	6a1d      	ldr	r5, [r3, #32]
  b2:	e7f6      	b.n	a2 <alt_clk_within_freq_limits+0xa2>
  b4:	4b10      	ldr	r3, [pc, #64]	; (f8 <alt_clk_within_freq_limits+0xf8>)
  b6:	6a5d      	ldr	r5, [r3, #36]	; 0x24
  b8:	e7f3      	b.n	a2 <alt_clk_within_freq_limits+0xa2>
  ba:	4b0f      	ldr	r3, [pc, #60]	; (f8 <alt_clk_within_freq_limits+0xf8>)
  bc:	6a9d      	ldr	r5, [r3, #40]	; 0x28
  be:	e7f0      	b.n	a2 <alt_clk_within_freq_limits+0xa2>
  c0:	4b0d      	ldr	r3, [pc, #52]	; (f8 <alt_clk_within_freq_limits+0xf8>)
  c2:	a901      	add	r1, sp, #4
  c4:	200a      	movs	r0, #10
  c6:	6add      	ldr	r5, [r3, #44]	; 0x2c
  c8:	4b0c      	ldr	r3, [pc, #48]	; (fc <alt_clk_within_freq_limits+0xfc>)
  ca:	681f      	ldr	r7, [r3, #0]
  cc:	e7c1      	b.n	52 <alt_clk_within_freq_limits+0x52>
  ce:	4b0a      	ldr	r3, [pc, #40]	; (f8 <alt_clk_within_freq_limits+0xf8>)
  d0:	6b1d      	ldr	r5, [r3, #48]	; 0x30
  d2:	a901      	add	r1, sp, #4
  d4:	200b      	movs	r0, #11
  d6:	e7d7      	b.n	88 <alt_clk_within_freq_limits+0x88>
  d8:	4b07      	ldr	r3, [pc, #28]	; (f8 <alt_clk_within_freq_limits+0xf8>)
  da:	6b5d      	ldr	r5, [r3, #52]	; 0x34
  dc:	e7f9      	b.n	d2 <alt_clk_within_freq_limits+0xd2>
  de:	4b06      	ldr	r3, [pc, #24]	; (f8 <alt_clk_within_freq_limits+0xf8>)
  e0:	6b9d      	ldr	r5, [r3, #56]	; 0x38
  e2:	e7f6      	b.n	d2 <alt_clk_within_freq_limits+0xd2>
  e4:	4b04      	ldr	r3, [pc, #16]	; (f8 <alt_clk_within_freq_limits+0xf8>)
  e6:	a901      	add	r1, sp, #4
  e8:	200b      	movs	r0, #11
  ea:	6bdd      	ldr	r5, [r3, #60]	; 0x3c
  ec:	4b03      	ldr	r3, [pc, #12]	; (fc <alt_clk_within_freq_limits+0xfc>)
  ee:	681f      	ldr	r7, [r3, #0]
  f0:	e7af      	b.n	52 <alt_clk_within_freq_limits+0x52>
  f2:	f06f 0408 	mvn.w	r4, #8
  f6:	e7ba      	b.n	6e <alt_clk_within_freq_limits+0x6e>
	...

Disassembly of section .text.alt_clk_pll_guard_band_get:

00000000 <alt_clk_pll_guard_band_get>:
   0:	2809      	cmp	r0, #9
   2:	d105      	bne.n	10 <alt_clk_pll_guard_band_get+0x10>
   4:	4b09      	ldr	r3, [pc, #36]	; (2c <alt_clk_pll_guard_band_get+0x2c>)
   6:	f893 003c 	ldrb.w	r0, [r3, #60]	; 0x3c
   a:	f000 007f 	and.w	r0, r0, #127	; 0x7f
   e:	4770      	bx	lr
  10:	280a      	cmp	r0, #10
  12:	d103      	bne.n	1c <alt_clk_pll_guard_band_get+0x1c>
  14:	4b05      	ldr	r3, [pc, #20]	; (2c <alt_clk_pll_guard_band_get+0x2c>)
  16:	f893 004c 	ldrb.w	r0, [r3, #76]	; 0x4c
  1a:	e7f6      	b.n	a <alt_clk_pll_guard_band_get+0xa>
  1c:	280b      	cmp	r0, #11
  1e:	d103      	bne.n	28 <alt_clk_pll_guard_band_get+0x28>
  20:	4b02      	ldr	r3, [pc, #8]	; (2c <alt_clk_pll_guard_band_get+0x2c>)
  22:	f893 005c 	ldrb.w	r0, [r3, #92]	; 0x5c
  26:	e7f0      	b.n	a <alt_clk_pll_guard_band_get+0xa>
  28:	2000      	movs	r0, #0
  2a:	4770      	bx	lr
  2c:	00000000 	.word	0x00000000

Disassembly of section .text.alt_clk_pll_guard_band_set:

00000000 <alt_clk_pll_guard_band_set>:
   0:	1e4b      	subs	r3, r1, #1
   2:	2b13      	cmp	r3, #19
   4:	d81e      	bhi.n	44 <alt_clk_pll_guard_band_set+0x44>
   6:	2809      	cmp	r0, #9
   8:	d108      	bne.n	1c <alt_clk_pll_guard_band_set+0x1c>
   a:	4b11      	ldr	r3, [pc, #68]	; (50 <alt_clk_pll_guard_band_set+0x50>)
   c:	f893 203c 	ldrb.w	r2, [r3, #60]	; 0x3c
  10:	f361 0206 	bfi	r2, r1, #0, #7
  14:	f883 203c 	strb.w	r2, [r3, #60]	; 0x3c
  18:	2000      	movs	r0, #0
  1a:	4770      	bx	lr
  1c:	280a      	cmp	r0, #10
  1e:	d107      	bne.n	30 <alt_clk_pll_guard_band_set+0x30>
  20:	4b0b      	ldr	r3, [pc, #44]	; (50 <alt_clk_pll_guard_band_set+0x50>)
  22:	f893 204c 	ldrb.w	r2, [r3, #76]	; 0x4c
  26:	f361 0206 	bfi	r2, r1, #0, #7
  2a:	f883 204c 	strb.w	r2, [r3, #76]	; 0x4c
  2e:	e7f3      	b.n	18 <alt_clk_pll_guard_band_set+0x18>
  30:	280b      	cmp	r0, #11
  32:	d10a      	bne.n	4a <alt_clk_pll_guard_band_set+0x4a>
  34:	4b06      	ldr	r3, [pc, #24]	; (50 <alt_clk_pll_guard_band_set+0x50>)
  36:	f893 205c 	ldrb.w	r2, [r3, #92]	; 0x5c
  3a:	f361 0206 	bfi	r2, r1, #0, #7
  3e:	f883 205c 	strb.w	r2, [r3, #92]	; 0x5c
  42:	e7e9      	b.n	18 <alt_clk_pll_guard_band_set+0x18>
  44:	f06f 0007 	mvn.w	r0, #7
  48:	4770      	bx	lr
  4a:	f04f 30ff 	mov.w	r0, #4294967295
  4e:	4770      	bx	lr
  50:	00000000 	.word	0x00000000

Disassembly of section .text.alt_clk_divider_get:

00000000 <alt_clk_divider_get>:
   0:	2900      	cmp	r1, #0
   2:	f000 80be 	beq.w	182 <alt_clk_divider_get+0x182>
   6:	380d      	subs	r0, #13
   8:	2833      	cmp	r0, #51	; 0x33
   a:	f200 80ba 	bhi.w	182 <alt_clk_divider_get+0x182>
   e:	e8df f000 	tbb	[pc, r0]
  12:	281a      	.short	0x281a
  14:	3b38322d 	.word	0x3b38322d
  18:	28b4b61a 	.word	0x28b4b61a
  1c:	76287066 	.word	0x76287066
  20:	93842d7f 	.word	0x93842d7f
  24:	38328e2d 	.word	0x38328e2d
  28:	423e3b3b 	.word	0x423e3b3b
  2c:	524e4a46 	.word	0x524e4a46
  30:	b8b89c98 	.word	0xb8b89c98
  34:	423eb8b4 	.word	0x423eb8b4
  38:	52aea8a2 	.word	0x52aea8a2
  3c:	b85e5a56 	.word	0xb85e5a56
  40:	5a5662b8 	.word	0x5a5662b8
  44:	625e      	.short	0x625e
  46:	4b50      	ldr	r3, [pc, #320]	; (188 <alt_clk_divider_get+0x188>)
  48:	6c9a      	ldr	r2, [r3, #72]	; 0x48
  4a:	f8d3 30e0 	ldr.w	r3, [r3, #224]	; 0xe0
  4e:	f3c3 0308 	ubfx	r3, r3, #0, #9
  52:	f3c2 0208 	ubfx	r2, r2, #0, #9
  56:	3301      	adds	r3, #1
  58:	fb02 3303 	mla	r3, r2, r3, r3
  5c:	600b      	str	r3, [r1, #0]
  5e:	2000      	movs	r0, #0
  60:	4770      	bx	lr
  62:	4b49      	ldr	r3, [pc, #292]	; (188 <alt_clk_divider_get+0x188>)
  64:	6cda      	ldr	r2, [r3, #76]	; 0x4c
  66:	f8d3 30e4 	ldr.w	r3, [r3, #228]	; 0xe4
  6a:	e7f0      	b.n	4e <alt_clk_divider_get+0x4e>
  6c:	4b46      	ldr	r3, [pc, #280]	; (188 <alt_clk_divider_get+0x188>)
  6e:	6d1a      	ldr	r2, [r3, #80]	; 0x50
  70:	f8d3 30e8 	ldr.w	r3, [r3, #232]	; 0xe8
  74:	e7eb      	b.n	4e <alt_clk_divider_get+0x4e>
  76:	4b44      	ldr	r3, [pc, #272]	; (188 <alt_clk_divider_get+0x188>)
  78:	6d5b      	ldr	r3, [r3, #84]	; 0x54
  7a:	f3c3 0308 	ubfx	r3, r3, #0, #9
  7e:	3301      	adds	r3, #1
  80:	e7ec      	b.n	5c <alt_clk_divider_get+0x5c>
  82:	4b41      	ldr	r3, [pc, #260]	; (188 <alt_clk_divider_get+0x188>)
  84:	6d9b      	ldr	r3, [r3, #88]	; 0x58
  86:	e7f8      	b.n	7a <alt_clk_divider_get+0x7a>
  88:	4b3f      	ldr	r3, [pc, #252]	; (188 <alt_clk_divider_get+0x188>)
  8a:	6ddb      	ldr	r3, [r3, #92]	; 0x5c
  8c:	e7f5      	b.n	7a <alt_clk_divider_get+0x7a>
  8e:	4b3e      	ldr	r3, [pc, #248]	; (188 <alt_clk_divider_get+0x188>)
  90:	f8d3 3088 	ldr.w	r3, [r3, #136]	; 0x88
  94:	e7f1      	b.n	7a <alt_clk_divider_get+0x7a>
  96:	4b3c      	ldr	r3, [pc, #240]	; (188 <alt_clk_divider_get+0x188>)
  98:	f8d3 308c 	ldr.w	r3, [r3, #140]	; 0x8c
  9c:	e7ed      	b.n	7a <alt_clk_divider_get+0x7a>
  9e:	4b3a      	ldr	r3, [pc, #232]	; (188 <alt_clk_divider_get+0x188>)
  a0:	f8d3 3090 	ldr.w	r3, [r3, #144]	; 0x90
  a4:	e7e9      	b.n	7a <alt_clk_divider_get+0x7a>
  a6:	4b38      	ldr	r3, [pc, #224]	; (188 <alt_clk_divider_get+0x188>)
  a8:	f8d3 3094 	ldr.w	r3, [r3, #148]	; 0x94
  ac:	e7e5      	b.n	7a <alt_clk_divider_get+0x7a>
  ae:	4b36      	ldr	r3, [pc, #216]	; (188 <alt_clk_divider_get+0x188>)
  b0:	f8d3 3098 	ldr.w	r3, [r3, #152]	; 0x98
  b4:	e7e1      	b.n	7a <alt_clk_divider_get+0x7a>
  b6:	4b34      	ldr	r3, [pc, #208]	; (188 <alt_clk_divider_get+0x188>)
  b8:	f8d3 309c 	ldr.w	r3, [r3, #156]	; 0x9c
  bc:	e7dd      	b.n	7a <alt_clk_divider_get+0x7a>
  be:	4b32      	ldr	r3, [pc, #200]	; (188 <alt_clk_divider_get+0x188>)
  c0:	f8d3 30c8 	ldr.w	r3, [r3, #200]	; 0xc8
  c4:	e7d9      	b.n	7a <alt_clk_divider_get+0x7a>
  c6:	4b30      	ldr	r3, [pc, #192]	; (188 <alt_clk_divider_get+0x188>)
  c8:	f8d3 30cc 	ldr.w	r3, [r3, #204]	; 0xcc
  cc:	e7d5      	b.n	7a <alt_clk_divider_get+0x7a>
  ce:	4b2e      	ldr	r3, [pc, #184]	; (188 <alt_clk_divider_get+0x188>)
  d0:	f8d3 30d0 	ldr.w	r3, [r3, #208]	; 0xd0
  d4:	e7d1      	b.n	7a <alt_clk_divider_get+0x7a>
  d6:	4b2c      	ldr	r3, [pc, #176]	; (188 <alt_clk_divider_get+0x188>)
  d8:	f8d3 30d4 	ldr.w	r3, [r3, #212]	; 0xd4
  dc:	e7cd      	b.n	7a <alt_clk_divider_get+0x7a>
  de:	4b2a      	ldr	r3, [pc, #168]	; (188 <alt_clk_divider_get+0x188>)
  e0:	6e58      	ldr	r0, [r3, #100]	; 0x64
  e2:	f000 0303 	and.w	r3, r0, #3
  e6:	f010 0002 	ands.w	r0, r0, #2
  ea:	d10e      	bne.n	10a <alt_clk_divider_get+0x10a>
  ec:	3301      	adds	r3, #1
  ee:	600b      	str	r3, [r1, #0]
  f0:	4770      	bx	lr
  f2:	4b25      	ldr	r3, [pc, #148]	; (188 <alt_clk_divider_get+0x188>)
  f4:	6e5b      	ldr	r3, [r3, #100]	; 0x64
  f6:	0898      	lsrs	r0, r3, #2
  f8:	f3c3 0381 	ubfx	r3, r3, #2, #2
  fc:	e7f3      	b.n	e6 <alt_clk_divider_get+0xe6>
  fe:	4b22      	ldr	r3, [pc, #136]	; (188 <alt_clk_divider_get+0x188>)
 100:	6e5b      	ldr	r3, [r3, #100]	; 0x64
 102:	f3c3 1302 	ubfx	r3, r3, #4, #3
 106:	2b04      	cmp	r3, #4
 108:	d90d      	bls.n	126 <alt_clk_divider_get+0x126>
 10a:	f04f 30ff 	mov.w	r0, #4294967295
 10e:	4770      	bx	lr
 110:	4b1d      	ldr	r3, [pc, #116]	; (188 <alt_clk_divider_get+0x188>)
 112:	6e5b      	ldr	r3, [r3, #100]	; 0x64
 114:	f3c3 13c2 	ubfx	r3, r3, #7, #3
 118:	e7f5      	b.n	106 <alt_clk_divider_get+0x106>
 11a:	4b1b      	ldr	r3, [pc, #108]	; (188 <alt_clk_divider_get+0x188>)
 11c:	6e9b      	ldr	r3, [r3, #104]	; 0x68
 11e:	f003 0303 	and.w	r3, r3, #3
 122:	2b03      	cmp	r3, #3
 124:	d0f1      	beq.n	10a <alt_clk_divider_get+0x10a>
 126:	2201      	movs	r2, #1
 128:	fa02 f303 	lsl.w	r3, r2, r3
 12c:	e796      	b.n	5c <alt_clk_divider_get+0x5c>
 12e:	4b16      	ldr	r3, [pc, #88]	; (188 <alt_clk_divider_get+0x188>)
 130:	6e9b      	ldr	r3, [r3, #104]	; 0x68
 132:	f3c3 0381 	ubfx	r3, r3, #2, #2
 136:	e7f4      	b.n	122 <alt_clk_divider_get+0x122>
 138:	4b13      	ldr	r3, [pc, #76]	; (188 <alt_clk_divider_get+0x188>)
 13a:	6edb      	ldr	r3, [r3, #108]	; 0x6c
 13c:	f003 0307 	and.w	r3, r3, #7
 140:	e7e1      	b.n	106 <alt_clk_divider_get+0x106>
 142:	4b11      	ldr	r3, [pc, #68]	; (188 <alt_clk_divider_get+0x188>)
 144:	f8d3 30a4 	ldr.w	r3, [r3, #164]	; 0xa4
 148:	e7f8      	b.n	13c <alt_clk_divider_get+0x13c>
 14a:	4b0f      	ldr	r3, [pc, #60]	; (188 <alt_clk_divider_get+0x188>)
 14c:	f8d3 30a4 	ldr.w	r3, [r3, #164]	; 0xa4
 150:	f3c3 03c2 	ubfx	r3, r3, #3, #3
 154:	e7d7      	b.n	106 <alt_clk_divider_get+0x106>
 156:	4b0c      	ldr	r3, [pc, #48]	; (188 <alt_clk_divider_get+0x188>)
 158:	f8d3 30a4 	ldr.w	r3, [r3, #164]	; 0xa4
 15c:	f3c3 1382 	ubfx	r3, r3, #6, #3
 160:	e7d1      	b.n	106 <alt_clk_divider_get+0x106>
 162:	4b09      	ldr	r3, [pc, #36]	; (188 <alt_clk_divider_get+0x188>)
 164:	f8d3 30a4 	ldr.w	r3, [r3, #164]	; 0xa4
 168:	f3c3 2342 	ubfx	r3, r3, #9, #3
 16c:	e7cb      	b.n	106 <alt_clk_divider_get+0x106>
 16e:	4b06      	ldr	r3, [pc, #24]	; (188 <alt_clk_divider_get+0x188>)
 170:	f8d3 30a8 	ldr.w	r3, [r3, #168]	; 0xa8
 174:	f023 437f 	bic.w	r3, r3, #4278190080	; 0xff000000
 178:	e781      	b.n	7e <alt_clk_divider_get+0x7e>
 17a:	2304      	movs	r3, #4
 17c:	e76e      	b.n	5c <alt_clk_divider_get+0x5c>
 17e:	2302      	movs	r3, #2
 180:	e76c      	b.n	5c <alt_clk_divider_get+0x5c>
 182:	f06f 0008 	mvn.w	r0, #8
 186:	4770      	bx	lr
 188:	ffd04000 	.word	0xffd04000

Disassembly of section .text.alt_clk_divider_set:

00000000 <alt_clk_divider_set>:
   0:	b5f0      	push	{r4, r5, r6, r7, lr}
   2:	380d      	subs	r0, #13
   4:	460c      	mov	r4, r1
   6:	b085      	sub	sp, #20
   8:	2833      	cmp	r0, #51	; 0x33
   a:	f200 85b9 	bhi.w	b80 <alt_clk_divider_set+0xb80>
   e:	e8df f010 	tbh	[pc, r0, lsl #1]
  12:	0034      	.short	0x0034
  14:	00a30055 	.word	0x00a30055
  18:	00f200bf 	.word	0x00f200bf
  1c:	00340165 	.word	0x00340165
  20:	05b705b7 	.word	0x05b705b7
  24:	03880055 	.word	0x03880055
  28:	05b703ab 	.word	0x05b703ab
  2c:	03e803bf 	.word	0x03e803bf
  30:	040e00a3 	.word	0x040e00a3
  34:	05b70453 	.word	0x05b70453
  38:	0564042e 	.word	0x0564042e
  3c:	016500f2 	.word	0x016500f2
  40:	01a50165 	.word	0x01a50165
  44:	01e401c6 	.word	0x01e401c6
  48:	026b020c 	.word	0x026b020c
  4c:	048f02be 	.word	0x048f02be
  50:	05b704c1 	.word	0x05b704c1
  54:	05b705b7 	.word	0x05b705b7
  58:	01a505b7 	.word	0x01a505b7
  5c:	04ea01c6 	.word	0x04ea01c6
  60:	053c0513 	.word	0x053c0513
  64:	02e202be 	.word	0x02e202be
  68:	03490323 	.word	0x03490323
  6c:	05b705b7 	.word	0x05b705b7
  70:	02e20368 	.word	0x02e20368
  74:	03490323 	.word	0x03490323
  78:	0368      	.short	0x0368
  7a:	4eb0      	ldr	r6, [pc, #704]	; (33c <alt_clk_divider_set+0x33c>)
  7c:	f8d6 50e0 	ldr.w	r5, [r6, #224]	; 0xe0
  80:	f3c5 0508 	ubfx	r5, r5, #0, #9
  84:	3501      	adds	r5, #1
  86:	ebb1 2f45 	cmp.w	r1, r5, lsl #9
  8a:	d903      	bls.n	94 <alt_clk_divider_set+0x94>
  8c:	f06f 0007 	mvn.w	r0, #7
  90:	b005      	add	sp, #20
  92:	bdf0      	pop	{r4, r5, r6, r7, pc}
  94:	4629      	mov	r1, r5
  96:	4620      	mov	r0, r4
  98:	f7ff fffe 	bl	0 <alt_clk_divider_set>
  9c:	2800      	cmp	r0, #0
  9e:	d0f5      	beq.n	8c <alt_clk_divider_set+0x8c>
  a0:	4621      	mov	r1, r4
  a2:	200d      	movs	r0, #13
  a4:	f7ff fffe 	bl	0 <alt_clk_divider_set>
  a8:	2801      	cmp	r0, #1
  aa:	d1ef      	bne.n	8c <alt_clk_divider_set+0x8c>
  ac:	4629      	mov	r1, r5
  ae:	4620      	mov	r0, r4
  b0:	f7ff fffe 	bl	0 <__aeabi_uidiv>
  b4:	3801      	subs	r0, #1
  b6:	64b0      	str	r0, [r6, #72]	; 0x48
  b8:	2000      	movs	r0, #0
  ba:	e7e9      	b.n	90 <alt_clk_divider_set+0x90>
  bc:	4e9f      	ldr	r6, [pc, #636]	; (33c <alt_clk_divider_set+0x33c>)
  be:	f8d6 50e4 	ldr.w	r5, [r6, #228]	; 0xe4
  c2:	f3c5 0508 	ubfx	r5, r5, #0, #9
  c6:	3501      	adds	r5, #1
  c8:	ebb1 2f45 	cmp.w	r1, r5, lsl #9
  cc:	d8de      	bhi.n	8c <alt_clk_divider_set+0x8c>
  ce:	4629      	mov	r1, r5
  d0:	4620      	mov	r0, r4
  d2:	f7ff fffe 	bl	0 <alt_clk_divider_set>
  d6:	2800      	cmp	r0, #0
  d8:	d0d8      	beq.n	8c <alt_clk_divider_set+0x8c>
  da:	4621      	mov	r1, r4
  dc:	200e      	movs	r0, #14
  de:	f7ff fffe 	bl	0 <alt_clk_divider_set>
  e2:	2801      	cmp	r0, #1
  e4:	d1d2      	bne.n	8c <alt_clk_divider_set+0x8c>
  e6:	4629      	mov	r1, r5
  e8:	4620      	mov	r0, r4
  ea:	f7ff fffe 	bl	0 <__aeabi_uidiv>
  ee:	6f33      	ldr	r3, [r6, #112]	; 0x70
  f0:	9302      	str	r3, [sp, #8]
  f2:	3801      	subs	r0, #1
  f4:	6e33      	ldr	r3, [r6, #96]	; 0x60
  f6:	9303      	str	r3, [sp, #12]
  f8:	9b03      	ldr	r3, [sp, #12]
  fa:	f013 0304 	ands.w	r3, r3, #4
  fe:	bf18      	it	ne
 100:	9b02      	ldrne	r3, [sp, #8]
 102:	9a03      	ldr	r2, [sp, #12]
 104:	bf1c      	itt	ne
 106:	43db      	mvnne	r3, r3
 108:	f003 0301 	andne.w	r3, r3, #1
 10c:	f012 0208 	ands.w	r2, r2, #8
 110:	bf18      	it	ne
 112:	9a02      	ldrne	r2, [sp, #8]
 114:	9903      	ldr	r1, [sp, #12]
 116:	bf18      	it	ne
 118:	f082 0202 	eorne.w	r2, r2, #2
 11c:	9102      	str	r1, [sp, #8]
 11e:	bf18      	it	ne
 120:	f3c2 0240 	ubfxne	r2, r2, #1, #1
 124:	b11b      	cbz	r3, 12e <alt_clk_divider_set+0x12e>
 126:	9902      	ldr	r1, [sp, #8]
 128:	f021 0104 	bic.w	r1, r1, #4
 12c:	9102      	str	r1, [sp, #8]
 12e:	b11a      	cbz	r2, 138 <alt_clk_divider_set+0x138>
 130:	9902      	ldr	r1, [sp, #8]
 132:	f021 0108 	bic.w	r1, r1, #8
 136:	9102      	str	r1, [sp, #8]
 138:	431a      	orrs	r2, r3
 13a:	4c80      	ldr	r4, [pc, #512]	; (33c <alt_clk_divider_set+0x33c>)
 13c:	f04f 011e 	mov.w	r1, #30
 140:	bf1c      	itt	ne
 142:	9b02      	ldrne	r3, [sp, #8]
 144:	6623      	strne	r3, [r4, #96]	; 0x60
 146:	64e0      	str	r0, [r4, #76]	; 0x4c
 148:	487d      	ldr	r0, [pc, #500]	; (340 <alt_clk_divider_set+0x340>)
 14a:	f7ff fffe 	bl	0 <alt_clk_divider_set>
 14e:	2a00      	cmp	r2, #0
 150:	d0b2      	beq.n	b8 <alt_clk_divider_set+0xb8>
 152:	9b03      	ldr	r3, [sp, #12]
 154:	6623      	str	r3, [r4, #96]	; 0x60
 156:	e7af      	b.n	b8 <alt_clk_divider_set+0xb8>
 158:	4e78      	ldr	r6, [pc, #480]	; (33c <alt_clk_divider_set+0x33c>)
 15a:	f8d6 50e8 	ldr.w	r5, [r6, #232]	; 0xe8
 15e:	f3c5 0508 	ubfx	r5, r5, #0, #9
 162:	3501      	adds	r5, #1
 164:	ebb1 2f45 	cmp.w	r1, r5, lsl #9
 168:	d890      	bhi.n	8c <alt_clk_divider_set+0x8c>
 16a:	4629      	mov	r1, r5
 16c:	4620      	mov	r0, r4
 16e:	f7ff fffe 	bl	0 <alt_clk_divider_set>
 172:	2800      	cmp	r0, #0
 174:	d08a      	beq.n	8c <alt_clk_divider_set+0x8c>
 176:	4621      	mov	r1, r4
 178:	200f      	movs	r0, #15
 17a:	f7ff fffe 	bl	0 <alt_clk_divider_set>
 17e:	2801      	cmp	r0, #1
 180:	d184      	bne.n	8c <alt_clk_divider_set+0x8c>
 182:	4629      	mov	r1, r5
 184:	4620      	mov	r0, r4
 186:	f7ff fffe 	bl	0 <__aeabi_uidiv>
 18a:	3801      	subs	r0, #1
 18c:	6530      	str	r0, [r6, #80]	; 0x50
 18e:	e793      	b.n	b8 <alt_clk_divider_set+0xb8>
 190:	f5b1 7f00 	cmp.w	r1, #512	; 0x200
 194:	f63f af7a 	bhi.w	8c <alt_clk_divider_set+0x8c>
 198:	2010      	movs	r0, #16
 19a:	f7ff fffe 	bl	0 <alt_clk_divider_set>
 19e:	2801      	cmp	r0, #1
 1a0:	f47f af74 	bne.w	8c <alt_clk_divider_set+0x8c>
 1a4:	4a65      	ldr	r2, [pc, #404]	; (33c <alt_clk_divider_set+0x33c>)
 1a6:	f8d2 30ac 	ldr.w	r3, [r2, #172]	; 0xac
 1aa:	f3c3 1301 	ubfx	r3, r3, #4, #2
 1ae:	2b01      	cmp	r3, #1
 1b0:	f040 84e6 	bne.w	b80 <alt_clk_divider_set+0xb80>
 1b4:	f8d2 50a0 	ldr.w	r5, [r2, #160]	; 0xa0
 1b8:	9502      	str	r5, [sp, #8]
 1ba:	f415 6500 	ands.w	r5, r5, #2048	; 0x800
 1be:	4961      	ldr	r1, [pc, #388]	; (344 <alt_clk_divider_set+0x344>)
 1c0:	4861      	ldr	r0, [pc, #388]	; (348 <alt_clk_divider_set+0x348>)
 1c2:	bf1e      	ittt	ne
 1c4:	9b02      	ldrne	r3, [sp, #8]
 1c6:	f423 6300 	bicne.w	r3, r3, #2048	; 0x800
 1ca:	f8c2 30a0 	strne.w	r3, [r2, #160]	; 0xa0
 1ce:	2208      	movs	r2, #8
 1d0:	2319      	movs	r3, #25
 1d2:	e9cd 2300 	strd	r2, r3, [sp]
 1d6:	1e63      	subs	r3, r4, #1
 1d8:	4a5c      	ldr	r2, [pc, #368]	; (34c <alt_clk_divider_set+0x34c>)
 1da:	f7ff fffe 	bl	0 <alt_clk_divider_set>
 1de:	4610      	mov	r0, r2
 1e0:	211e      	movs	r1, #30
 1e2:	f7ff fffe 	bl	0 <alt_clk_divider_set>
 1e6:	2d00      	cmp	r5, #0
 1e8:	f43f af66 	beq.w	b8 <alt_clk_divider_set+0xb8>
 1ec:	4b53      	ldr	r3, [pc, #332]	; (33c <alt_clk_divider_set+0x33c>)
 1ee:	9a02      	ldr	r2, [sp, #8]
 1f0:	f8c3 20a0 	str.w	r2, [r3, #160]	; 0xa0
 1f4:	e760      	b.n	b8 <alt_clk_divider_set+0xb8>
 1f6:	f5b1 7f00 	cmp.w	r1, #512	; 0x200
 1fa:	f63f af47 	bhi.w	8c <alt_clk_divider_set+0x8c>
 1fe:	2011      	movs	r0, #17
 200:	f7ff fffe 	bl	0 <alt_clk_divider_set>
 204:	2801      	cmp	r0, #1
 206:	f47f af41 	bne.w	8c <alt_clk_divider_set+0x8c>
 20a:	4b4c      	ldr	r3, [pc, #304]	; (33c <alt_clk_divider_set+0x33c>)
 20c:	f8d3 20ac 	ldr.w	r2, [r3, #172]	; 0xac
 210:	9202      	str	r2, [sp, #8]
 212:	f8d3 30a0 	ldr.w	r3, [r3, #160]	; 0xa0
 216:	9303      	str	r3, [sp, #12]
 218:	9b02      	ldr	r3, [sp, #8]
 21a:	f003 0303 	and.w	r3, r3, #3
 21e:	2b01      	cmp	r3, #1
 220:	bf14      	ite	ne
 222:	2200      	movne	r2, #0
 224:	9a03      	ldreq	r2, [sp, #12]
 226:	9b02      	ldr	r3, [sp, #8]
 228:	bf08      	it	eq
 22a:	f3c2 2200 	ubfxeq	r2, r2, #8, #1
 22e:	f3c3 0381 	ubfx	r3, r3, #2, #2
 232:	2b01      	cmp	r3, #1
 234:	bf19      	ittee	ne
 236:	2600      	movne	r6, #0
 238:	4635      	movne	r5, r6
 23a:	9d03      	ldreq	r5, [sp, #12]
 23c:	9e03      	ldreq	r6, [sp, #12]
 23e:	9b03      	ldr	r3, [sp, #12]
 240:	bf08      	it	eq
 242:	f3c5 2540 	ubfxeq	r5, r5, #9, #1
 246:	9302      	str	r3, [sp, #8]
 248:	bf08      	it	eq
 24a:	f3c6 2680 	ubfxeq	r6, r6, #10, #1
 24e:	b165      	cbz	r5, 26a <alt_clk_divider_set+0x26a>
 250:	b15e      	cbz	r6, 26a <alt_clk_divider_set+0x26a>
 252:	9b02      	ldr	r3, [sp, #8]
 254:	483e      	ldr	r0, [pc, #248]	; (350 <alt_clk_divider_set+0x350>)
 256:	f423 6380 	bic.w	r3, r3, #1024	; 0x400
 25a:	9302      	str	r3, [sp, #8]
 25c:	4b37      	ldr	r3, [pc, #220]	; (33c <alt_clk_divider_set+0x33c>)
 25e:	9902      	ldr	r1, [sp, #8]
 260:	f8c3 10a0 	str.w	r1, [r3, #160]	; 0xa0
 264:	2108      	movs	r1, #8
 266:	f7ff fffe 	bl	0 <alt_clk_divider_set>
 26a:	ea52 0705 	orrs.w	r7, r2, r5
 26e:	d008      	beq.n	282 <alt_clk_divider_set+0x282>
 270:	bb6a      	cbnz	r2, 2ce <alt_clk_divider_set+0x2ce>
 272:	9b02      	ldr	r3, [sp, #8]
 274:	f423 7300 	bic.w	r3, r3, #512	; 0x200
 278:	9302      	str	r3, [sp, #8]
 27a:	4b30      	ldr	r3, [pc, #192]	; (33c <alt_clk_divider_set+0x33c>)
 27c:	9a02      	ldr	r2, [sp, #8]
 27e:	f8c3 20a0 	str.w	r2, [r3, #160]	; 0xa0
 282:	4a34      	ldr	r2, [pc, #208]	; (354 <alt_clk_divider_set+0x354>)
 284:	2310      	movs	r3, #16
 286:	492f      	ldr	r1, [pc, #188]	; (344 <alt_clk_divider_set+0x344>)
 288:	f04f 0c19 	mov.w	ip, #25
 28c:	482e      	ldr	r0, [pc, #184]	; (348 <alt_clk_divider_set+0x348>)
 28e:	e9cd 3c00 	strd	r3, ip, [sp]
 292:	1e63      	subs	r3, r4, #1
 294:	f7ff fffe 	bl	0 <alt_clk_divider_set>
 298:	4610      	mov	r0, r2
 29a:	211e      	movs	r1, #30
 29c:	f7ff fffe 	bl	0 <alt_clk_divider_set>
 2a0:	2f00      	cmp	r7, #0
 2a2:	f43f af09 	beq.w	b8 <alt_clk_divider_set+0xb8>
 2a6:	9b03      	ldr	r3, [sp, #12]
 2a8:	3a58      	subs	r2, #88	; 0x58
 2aa:	f423 6380 	bic.w	r3, r3, #1024	; 0x400
 2ae:	f8c2 30a0 	str.w	r3, [r2, #160]	; 0xa0
 2b2:	2d00      	cmp	r5, #0
 2b4:	f43f af00 	beq.w	b8 <alt_clk_divider_set+0xb8>
 2b8:	2e00      	cmp	r6, #0
 2ba:	f43f aefd 	beq.w	b8 <alt_clk_divider_set+0xb8>
 2be:	3048      	adds	r0, #72	; 0x48
 2c0:	2108      	movs	r1, #8
 2c2:	f7ff fffe 	bl	0 <alt_clk_divider_set>
 2c6:	9b03      	ldr	r3, [sp, #12]
 2c8:	f8c2 30a0 	str.w	r3, [r2, #160]	; 0xa0
 2cc:	e6f4      	b.n	b8 <alt_clk_divider_set+0xb8>
 2ce:	9b02      	ldr	r3, [sp, #8]
 2d0:	f423 7380 	bic.w	r3, r3, #256	; 0x100
 2d4:	9302      	str	r3, [sp, #8]
 2d6:	2d00      	cmp	r5, #0
 2d8:	d0cf      	beq.n	27a <alt_clk_divider_set+0x27a>
 2da:	e7ca      	b.n	272 <alt_clk_divider_set+0x272>
 2dc:	f5b1 7f00 	cmp.w	r1, #512	; 0x200
 2e0:	f63f aed4 	bhi.w	8c <alt_clk_divider_set+0x8c>
 2e4:	2012      	movs	r0, #18
 2e6:	f7ff fffe 	bl	0 <alt_clk_divider_set>
 2ea:	4605      	mov	r5, r0
 2ec:	2801      	cmp	r0, #1
 2ee:	f47f aecd 	bne.w	8c <alt_clk_divider_set+0x8c>
 2f2:	4a12      	ldr	r2, [pc, #72]	; (33c <alt_clk_divider_set+0x33c>)
 2f4:	6e13      	ldr	r3, [r2, #96]	; 0x60
 2f6:	9302      	str	r3, [sp, #8]
 2f8:	9b02      	ldr	r3, [sp, #8]
 2fa:	05d9      	lsls	r1, r3, #23
 2fc:	d403      	bmi.n	306 <alt_clk_divider_set+0x306>
 2fe:	9b02      	ldr	r3, [sp, #8]
 300:	f413 7300 	ands.w	r3, r3, #512	; 0x200
 304:	d018      	beq.n	338 <alt_clk_divider_set+0x338>
 306:	9b02      	ldr	r3, [sp, #8]
 308:	f423 7340 	bic.w	r3, r3, #768	; 0x300
 30c:	6613      	str	r3, [r2, #96]	; 0x60
 30e:	2220      	movs	r2, #32
 310:	2319      	movs	r3, #25
 312:	e9cd 2300 	strd	r2, r3, [sp]
 316:	1e63      	subs	r3, r4, #1
 318:	4a0f      	ldr	r2, [pc, #60]	; (358 <alt_clk_divider_set+0x358>)
 31a:	490a      	ldr	r1, [pc, #40]	; (344 <alt_clk_divider_set+0x344>)
 31c:	480a      	ldr	r0, [pc, #40]	; (348 <alt_clk_divider_set+0x348>)
 31e:	f7ff fffe 	bl	0 <alt_clk_divider_set>
 322:	4610      	mov	r0, r2
 324:	211e      	movs	r1, #30
 326:	f7ff fffe 	bl	0 <alt_clk_divider_set>
 32a:	2d00      	cmp	r5, #0
 32c:	f43f aec4 	beq.w	b8 <alt_clk_divider_set+0xb8>
 330:	4b02      	ldr	r3, [pc, #8]	; (33c <alt_clk_divider_set+0x33c>)
 332:	9a02      	ldr	r2, [sp, #8]
 334:	661a      	str	r2, [r3, #96]	; 0x60
 336:	e6bf      	b.n	b8 <alt_clk_divider_set+0xb8>
 338:	461d      	mov	r5, r3
 33a:	e7e8      	b.n	30e <alt_clk_divider_set+0x30e>
 33c:	ffd04000 	.word	0xffd04000
 340:	ffd04060 	.word	0xffd04060
 344:	ffd04074 	.word	0xffd04074
 348:	ffd04040 	.word	0xffd04040
 34c:	ffd04054 	.word	0xffd04054
 350:	ffd040a0 	.word	0xffd040a0
 354:	ffd04058 	.word	0xffd04058
 358:	ffd0405c 	.word	0xffd0405c
 35c:	f5b1 7f00 	cmp.w	r1, #512	; 0x200
 360:	f63f ae94 	bhi.w	8c <alt_clk_divider_set+0x8c>
 364:	2025      	movs	r0, #37	; 0x25
 366:	f7ff fffe 	bl	0 <alt_clk_divider_set>
 36a:	2801      	cmp	r0, #1
 36c:	f47f ae8e 	bne.w	8c <alt_clk_divider_set+0x8c>
 370:	4aad      	ldr	r2, [pc, #692]	; (628 <alt_clk_divider_set+0x628>)
 372:	f04f 0c19 	mov.w	ip, #25
 376:	f8d2 30a0 	ldr.w	r3, [r2, #160]	; 0xa0
 37a:	9302      	str	r3, [sp, #8]
 37c:	9d02      	ldr	r5, [sp, #8]
 37e:	f015 0501 	ands.w	r5, r5, #1
 382:	bf1e      	ittt	ne
 384:	9b02      	ldrne	r3, [sp, #8]
 386:	f023 0301 	bicne.w	r3, r3, #1
 38a:	f8c2 30a0 	strne.w	r3, [r2, #160]	; 0xa0
 38e:	4aa7      	ldr	r2, [pc, #668]	; (62c <alt_clk_divider_set+0x62c>)
 390:	2301      	movs	r3, #1
 392:	e9cd 3c00 	strd	r3, ip, [sp]
 396:	1e63      	subs	r3, r4, #1
 398:	49a5      	ldr	r1, [pc, #660]	; (630 <alt_clk_divider_set+0x630>)
 39a:	48a6      	ldr	r0, [pc, #664]	; (634 <alt_clk_divider_set+0x634>)
 39c:	e71d      	b.n	1da <alt_clk_divider_set+0x1da>
 39e:	f5b1 7f00 	cmp.w	r1, #512	; 0x200
 3a2:	f63f ae73 	bhi.w	8c <alt_clk_divider_set+0x8c>
 3a6:	2026      	movs	r0, #38	; 0x26
 3a8:	f7ff fffe 	bl	0 <alt_clk_divider_set>
 3ac:	2801      	cmp	r0, #1
 3ae:	f47f ae6d 	bne.w	8c <alt_clk_divider_set+0x8c>
 3b2:	4a9d      	ldr	r2, [pc, #628]	; (628 <alt_clk_divider_set+0x628>)
 3b4:	2619      	movs	r6, #25
 3b6:	f8d2 30a0 	ldr.w	r3, [r2, #160]	; 0xa0
 3ba:	9302      	str	r3, [sp, #8]
 3bc:	9d02      	ldr	r5, [sp, #8]
 3be:	f015 0502 	ands.w	r5, r5, #2
 3c2:	bf1e      	ittt	ne
 3c4:	9b02      	ldrne	r3, [sp, #8]
 3c6:	f023 0302 	bicne.w	r3, r3, #2
 3ca:	f8c2 30a0 	strne.w	r3, [r2, #160]	; 0xa0
 3ce:	2302      	movs	r3, #2
 3d0:	4a99      	ldr	r2, [pc, #612]	; (638 <alt_clk_divider_set+0x638>)
 3d2:	e9cd 3600 	strd	r3, r6, [sp]
 3d6:	1e63      	subs	r3, r4, #1
 3d8:	e7de      	b.n	398 <alt_clk_divider_set+0x398>
 3da:	f5b1 7f00 	cmp.w	r1, #512	; 0x200
 3de:	f63f ae55 	bhi.w	8c <alt_clk_divider_set+0x8c>
 3e2:	2027      	movs	r0, #39	; 0x27
 3e4:	f7ff fffe 	bl	0 <alt_clk_divider_set>
 3e8:	2801      	cmp	r0, #1
 3ea:	f47f ae4f 	bne.w	8c <alt_clk_divider_set+0x8c>
 3ee:	4b8e      	ldr	r3, [pc, #568]	; (628 <alt_clk_divider_set+0x628>)
 3f0:	f8d3 20ac 	ldr.w	r2, [r3, #172]	; 0xac
 3f4:	f3c2 1201 	ubfx	r2, r2, #4, #2
 3f8:	9202      	str	r2, [sp, #8]
 3fa:	9a02      	ldr	r2, [sp, #8]
 3fc:	2a02      	cmp	r2, #2
 3fe:	d112      	bne.n	426 <alt_clk_divider_set+0x426>
 400:	f8d3 20a0 	ldr.w	r2, [r3, #160]	; 0xa0
 404:	9202      	str	r2, [sp, #8]
 406:	9d02      	ldr	r5, [sp, #8]
 408:	f415 6500 	ands.w	r5, r5, #2048	; 0x800
 40c:	d004      	beq.n	418 <alt_clk_divider_set+0x418>
 40e:	9a02      	ldr	r2, [sp, #8]
 410:	f422 6200 	bic.w	r2, r2, #2048	; 0x800
 414:	f8c3 20a0 	str.w	r2, [r3, #160]	; 0xa0
 418:	2319      	movs	r3, #25
 41a:	2104      	movs	r1, #4
 41c:	4a87      	ldr	r2, [pc, #540]	; (63c <alt_clk_divider_set+0x63c>)
 41e:	e9cd 1300 	strd	r1, r3, [sp]
 422:	1e63      	subs	r3, r4, #1
 424:	e7b8      	b.n	398 <alt_clk_divider_set+0x398>
 426:	2500      	movs	r5, #0
 428:	e7f6      	b.n	418 <alt_clk_divider_set+0x418>
 42a:	f5b1 7f00 	cmp.w	r1, #512	; 0x200
 42e:	f63f ae2d 	bhi.w	8c <alt_clk_divider_set+0x8c>
 432:	2028      	movs	r0, #40	; 0x28
 434:	f7ff fffe 	bl	0 <alt_clk_divider_set>
 438:	4605      	mov	r5, r0
 43a:	2801      	cmp	r0, #1
 43c:	f47f ae26 	bne.w	8c <alt_clk_divider_set+0x8c>
 440:	4979      	ldr	r1, [pc, #484]	; (628 <alt_clk_divider_set+0x628>)
 442:	f8d1 30ac 	ldr.w	r3, [r1, #172]	; 0xac
 446:	9302      	str	r3, [sp, #8]
 448:	9a02      	ldr	r2, [sp, #8]
 44a:	9b02      	ldr	r3, [sp, #8]
 44c:	f002 0203 	and.w	r2, r2, #3
 450:	f8d1 10a0 	ldr.w	r1, [r1, #160]	; 0xa0
 454:	2a02      	cmp	r2, #2
 456:	9102      	str	r1, [sp, #8]
 458:	9103      	str	r1, [sp, #12]
 45a:	f3c3 0381 	ubfx	r3, r3, #2, #2
 45e:	bf12      	itee	ne
 460:	2200      	movne	r2, #0
 462:	9a02      	ldreq	r2, [sp, #8]
 464:	f3c2 2200 	ubfxeq	r2, r2, #8, #1
 468:	2b02      	cmp	r3, #2
 46a:	d138      	bne.n	4de <alt_clk_divider_set+0x4de>
 46c:	9b02      	ldr	r3, [sp, #8]
 46e:	9902      	ldr	r1, [sp, #8]
 470:	f3c3 2340 	ubfx	r3, r3, #9, #1
 474:	f411 6180 	ands.w	r1, r1, #1024	; 0x400
 478:	d034      	beq.n	4e4 <alt_clk_divider_set+0x4e4>
 47a:	9902      	ldr	r1, [sp, #8]
 47c:	f421 6180 	bic.w	r1, r1, #1024	; 0x400
 480:	9102      	str	r1, [sp, #8]
 482:	b11a      	cbz	r2, 48c <alt_clk_divider_set+0x48c>
 484:	9a02      	ldr	r2, [sp, #8]
 486:	f422 7280 	bic.w	r2, r2, #256	; 0x100
 48a:	9202      	str	r2, [sp, #8]
 48c:	4a66      	ldr	r2, [pc, #408]	; (628 <alt_clk_divider_set+0x628>)
 48e:	9902      	ldr	r1, [sp, #8]
 490:	f8c2 10a0 	str.w	r1, [r2, #160]	; 0xa0
 494:	b153      	cbz	r3, 4ac <alt_clk_divider_set+0x4ac>
 496:	486a      	ldr	r0, [pc, #424]	; (640 <alt_clk_divider_set+0x640>)
 498:	2108      	movs	r1, #8
 49a:	f7ff fffe 	bl	0 <alt_clk_divider_set>
 49e:	9b02      	ldr	r3, [sp, #8]
 4a0:	f423 7300 	bic.w	r3, r3, #512	; 0x200
 4a4:	9302      	str	r3, [sp, #8]
 4a6:	9b02      	ldr	r3, [sp, #8]
 4a8:	f8c2 30a0 	str.w	r3, [r2, #160]	; 0xa0
 4ac:	4a64      	ldr	r2, [pc, #400]	; (640 <alt_clk_divider_set+0x640>)
 4ae:	2319      	movs	r3, #25
 4b0:	495f      	ldr	r1, [pc, #380]	; (630 <alt_clk_divider_set+0x630>)
 4b2:	2608      	movs	r6, #8
 4b4:	485f      	ldr	r0, [pc, #380]	; (634 <alt_clk_divider_set+0x634>)
 4b6:	9301      	str	r3, [sp, #4]
 4b8:	1e63      	subs	r3, r4, #1
 4ba:	9600      	str	r6, [sp, #0]
 4bc:	f7ff fffe 	bl	0 <alt_clk_divider_set>
 4c0:	4610      	mov	r0, r2
 4c2:	211e      	movs	r1, #30
 4c4:	3a94      	subs	r2, #148	; 0x94
 4c6:	f7ff fffe 	bl	0 <alt_clk_divider_set>
 4ca:	9b03      	ldr	r3, [sp, #12]
 4cc:	f423 6380 	bic.w	r3, r3, #1024	; 0x400
 4d0:	f8c2 30a0 	str.w	r3, [r2, #160]	; 0xa0
 4d4:	2d00      	cmp	r5, #0
 4d6:	f43f adef 	beq.w	b8 <alt_clk_divider_set+0xb8>
 4da:	4631      	mov	r1, r6
 4dc:	e6f1      	b.n	2c2 <alt_clk_divider_set+0x2c2>
 4de:	2500      	movs	r5, #0
 4e0:	462b      	mov	r3, r5
 4e2:	e7ce      	b.n	482 <alt_clk_divider_set+0x482>
 4e4:	460d      	mov	r5, r1
 4e6:	e7cc      	b.n	482 <alt_clk_divider_set+0x482>
 4e8:	f5b1 7f00 	cmp.w	r1, #512	; 0x200
 4ec:	f63f adce 	bhi.w	8c <alt_clk_divider_set+0x8c>
 4f0:	2029      	movs	r0, #41	; 0x29
 4f2:	f7ff fffe 	bl	0 <alt_clk_divider_set>
 4f6:	2801      	cmp	r0, #1
 4f8:	f47f adc8 	bne.w	8c <alt_clk_divider_set+0x8c>
 4fc:	4b4a      	ldr	r3, [pc, #296]	; (628 <alt_clk_divider_set+0x628>)
 4fe:	6f1a      	ldr	r2, [r3, #112]	; 0x70
 500:	9203      	str	r2, [sp, #12]
 502:	9d03      	ldr	r5, [sp, #12]
 504:	9e03      	ldr	r6, [sp, #12]
 506:	f015 0501 	ands.w	r5, r5, #1
 50a:	f8d3 20a0 	ldr.w	r2, [r3, #160]	; 0xa0
 50e:	9203      	str	r2, [sp, #12]
 510:	f3c6 0640 	ubfx	r6, r6, #1, #1
 514:	bf1c      	itt	ne
 516:	9d03      	ldrne	r5, [sp, #12]
 518:	f3c5 0580 	ubfxne	r5, r5, #2, #1
 51c:	b116      	cbz	r6, 524 <alt_clk_divider_set+0x524>
 51e:	9e03      	ldr	r6, [sp, #12]
 520:	f3c6 06c0 	ubfx	r6, r6, #3, #1
 524:	6e1b      	ldr	r3, [r3, #96]	; 0x60
 526:	9302      	str	r3, [sp, #8]
 528:	b11d      	cbz	r5, 532 <alt_clk_divider_set+0x532>
 52a:	9b02      	ldr	r3, [sp, #8]
 52c:	f023 0304 	bic.w	r3, r3, #4
 530:	9302      	str	r3, [sp, #8]
 532:	b11e      	cbz	r6, 53c <alt_clk_divider_set+0x53c>
 534:	9b02      	ldr	r3, [sp, #8]
 536:	f023 0308 	bic.w	r3, r3, #8
 53a:	9302      	str	r3, [sp, #8]
 53c:	4f3a      	ldr	r7, [pc, #232]	; (628 <alt_clk_divider_set+0x628>)
 53e:	f04f 0e19 	mov.w	lr, #25
 542:	9b02      	ldr	r3, [sp, #8]
 544:	00ad      	lsls	r5, r5, #2
 546:	493a      	ldr	r1, [pc, #232]	; (630 <alt_clk_divider_set+0x630>)
 548:	483a      	ldr	r0, [pc, #232]	; (634 <alt_clk_divider_set+0x634>)
 54a:	663b      	str	r3, [r7, #96]	; 0x60
 54c:	237c      	movs	r3, #124	; 0x7c
 54e:	9302      	str	r3, [sp, #8]
 550:	9a02      	ldr	r2, [sp, #8]
 552:	9b03      	ldr	r3, [sp, #12]
 554:	ea23 0302 	bic.w	r3, r3, r2
 558:	4a3a      	ldr	r2, [pc, #232]	; (644 <alt_clk_divider_set+0x644>)
 55a:	f8c7 30a0 	str.w	r3, [r7, #160]	; 0xa0
 55e:	2310      	movs	r3, #16
 560:	e9cd 3e00 	strd	r3, lr, [sp]
 564:	1e63      	subs	r3, r4, #1
 566:	f7ff fffe 	bl	0 <alt_clk_divider_set>
 56a:	4610      	mov	r0, r2
 56c:	211e      	movs	r1, #30
 56e:	f7ff fffe 	bl	0 <alt_clk_divider_set>
 572:	9502      	str	r5, [sp, #8]
 574:	b11e      	cbz	r6, 57e <alt_clk_divider_set+0x57e>
 576:	9b02      	ldr	r3, [sp, #8]
 578:	f043 0308 	orr.w	r3, r3, #8
 57c:	9302      	str	r3, [sp, #8]
 57e:	6e3b      	ldr	r3, [r7, #96]	; 0x60
 580:	9a02      	ldr	r2, [sp, #8]
 582:	4313      	orrs	r3, r2
 584:	663b      	str	r3, [r7, #96]	; 0x60
 586:	9b03      	ldr	r3, [sp, #12]
 588:	f8c7 30a0 	str.w	r3, [r7, #160]	; 0xa0
 58c:	e594      	b.n	b8 <alt_clk_divider_set+0xb8>
 58e:	f5b1 7f00 	cmp.w	r1, #512	; 0x200
 592:	f63f ad7b 	bhi.w	8c <alt_clk_divider_set+0x8c>
 596:	202a      	movs	r0, #42	; 0x2a
 598:	f7ff fffe 	bl	0 <alt_clk_divider_set>
 59c:	2801      	cmp	r0, #1
 59e:	f47f ad75 	bne.w	8c <alt_clk_divider_set+0x8c>
 5a2:	4a21      	ldr	r2, [pc, #132]	; (628 <alt_clk_divider_set+0x628>)
 5a4:	2719      	movs	r7, #25
 5a6:	4823      	ldr	r0, [pc, #140]	; (634 <alt_clk_divider_set+0x634>)
 5a8:	4921      	ldr	r1, [pc, #132]	; (630 <alt_clk_divider_set+0x630>)
 5aa:	f8d2 30a0 	ldr.w	r3, [r2, #160]	; 0xa0
 5ae:	9302      	str	r3, [sp, #8]
 5b0:	9d02      	ldr	r5, [sp, #8]
 5b2:	f015 0580 	ands.w	r5, r5, #128	; 0x80
 5b6:	bf1e      	ittt	ne
 5b8:	9b02      	ldrne	r3, [sp, #8]
 5ba:	f023 0380 	bicne.w	r3, r3, #128	; 0x80
 5be:	f8c2 30a0 	strne.w	r3, [r2, #160]	; 0xa0
 5c2:	2320      	movs	r3, #32
 5c4:	4a20      	ldr	r2, [pc, #128]	; (648 <alt_clk_divider_set+0x648>)
 5c6:	e9cd 3700 	strd	r3, r7, [sp]
 5ca:	1e63      	subs	r3, r4, #1
 5cc:	f7ff fffe 	bl	0 <alt_clk_divider_set>
 5d0:	3020      	adds	r0, #32
 5d2:	211e      	movs	r1, #30
 5d4:	e605      	b.n	1e2 <alt_clk_divider_set+0x1e2>
 5d6:	f5b1 7f00 	cmp.w	r1, #512	; 0x200
 5da:	f63f ad57 	bhi.w	8c <alt_clk_divider_set+0x8c>
 5de:	2037      	movs	r0, #55	; 0x37
 5e0:	f7ff fffe 	bl	0 <alt_clk_divider_set>
 5e4:	2801      	cmp	r0, #1
 5e6:	f47f ad51 	bne.w	8c <alt_clk_divider_set+0x8c>
 5ea:	480f      	ldr	r0, [pc, #60]	; (628 <alt_clk_divider_set+0x628>)
 5ec:	2500      	movs	r5, #0
 5ee:	4917      	ldr	r1, [pc, #92]	; (64c <alt_clk_divider_set+0x64c>)
 5f0:	1e63      	subs	r3, r4, #1
 5f2:	f8d0 20d8 	ldr.w	r2, [r0, #216]	; 0xd8
 5f6:	9202      	str	r2, [sp, #8]
 5f8:	9e02      	ldr	r6, [sp, #8]
 5fa:	f016 0601 	ands.w	r6, r6, #1
 5fe:	bf1e      	ittt	ne
 600:	9a02      	ldrne	r2, [sp, #8]
 602:	f022 0201 	bicne.w	r2, r2, #1
 606:	f8c0 20d8 	strne.w	r2, [r0, #216]	; 0xd8
 60a:	2201      	movs	r2, #1
 60c:	4810      	ldr	r0, [pc, #64]	; (650 <alt_clk_divider_set+0x650>)
 60e:	9200      	str	r2, [sp, #0]
 610:	9501      	str	r5, [sp, #4]
 612:	4a10      	ldr	r2, [pc, #64]	; (654 <alt_clk_divider_set+0x654>)
 614:	f7ff fffe 	bl	0 <alt_clk_divider_set>
 618:	2e00      	cmp	r6, #0
 61a:	f43f ad4d 	beq.w	b8 <alt_clk_divider_set+0xb8>
 61e:	4b02      	ldr	r3, [pc, #8]	; (628 <alt_clk_divider_set+0x628>)
 620:	9a02      	ldr	r2, [sp, #8]
 622:	f8c3 20d8 	str.w	r2, [r3, #216]	; 0xd8
 626:	e547      	b.n	b8 <alt_clk_divider_set+0xb8>
 628:	ffd04000 	.word	0xffd04000
 62c:	ffd04088 	.word	0xffd04088
 630:	ffd040b0 	.word	0xffd040b0
 634:	ffd04080 	.word	0xffd04080
 638:	ffd0408c 	.word	0xffd0408c
 63c:	ffd04090 	.word	0xffd04090
 640:	ffd04094 	.word	0xffd04094
 644:	ffd04098 	.word	0xffd04098
 648:	ffd0409c 	.word	0xffd0409c
 64c:	ffd040dc 	.word	0xffd040dc
 650:	ffd040c0 	.word	0xffd040c0
 654:	ffd040c8 	.word	0xffd040c8
 658:	f5b1 7f00 	cmp.w	r1, #512	; 0x200
 65c:	f63f ad16 	bhi.w	8c <alt_clk_divider_set+0x8c>
 660:	2038      	movs	r0, #56	; 0x38
 662:	f7ff fffe 	bl	0 <alt_clk_divider_set>
 666:	2801      	cmp	r0, #1
 668:	f47f ad10 	bne.w	8c <alt_clk_divider_set+0x8c>
 66c:	4ea2      	ldr	r6, [pc, #648]	; (8f8 <alt_clk_divider_set+0x8f8>)
 66e:	1e63      	subs	r3, r4, #1
 670:	2419      	movs	r4, #25
 672:	f8d6 20d8 	ldr.w	r2, [r6, #216]	; 0xd8
 676:	9202      	str	r2, [sp, #8]
 678:	9d02      	ldr	r5, [sp, #8]
 67a:	f015 0502 	ands.w	r5, r5, #2
 67e:	bf1f      	itttt	ne
 680:	4605      	movne	r5, r0
 682:	9a02      	ldrne	r2, [sp, #8]
 684:	f022 0202 	bicne.w	r2, r2, #2
 688:	f8c6 20d8 	strne.w	r2, [r6, #216]	; 0xd8
 68c:	2202      	movs	r2, #2
 68e:	e9cd 2400 	strd	r2, r4, [sp]
 692:	4a9a      	ldr	r2, [pc, #616]	; (8fc <alt_clk_divider_set+0x8fc>)
 694:	499a      	ldr	r1, [pc, #616]	; (900 <alt_clk_divider_set+0x900>)
 696:	489b      	ldr	r0, [pc, #620]	; (904 <alt_clk_divider_set+0x904>)
 698:	f7ff fffe 	bl	0 <alt_clk_divider_set>
 69c:	2d00      	cmp	r5, #0
 69e:	f43f ad0b 	beq.w	b8 <alt_clk_divider_set+0xb8>
 6a2:	e7bc      	b.n	61e <alt_clk_divider_set+0x61e>
 6a4:	f5b1 7f00 	cmp.w	r1, #512	; 0x200
 6a8:	f63f acf0 	bhi.w	8c <alt_clk_divider_set+0x8c>
 6ac:	2039      	movs	r0, #57	; 0x39
 6ae:	f7ff fffe 	bl	0 <alt_clk_divider_set>
 6b2:	2801      	cmp	r0, #1
 6b4:	f47f acea 	bne.w	8c <alt_clk_divider_set+0x8c>
 6b8:	4e8f      	ldr	r6, [pc, #572]	; (8f8 <alt_clk_divider_set+0x8f8>)
 6ba:	2104      	movs	r1, #4
 6bc:	1e63      	subs	r3, r4, #1
 6be:	f8d6 20d8 	ldr.w	r2, [r6, #216]	; 0xd8
 6c2:	9202      	str	r2, [sp, #8]
 6c4:	9d02      	ldr	r5, [sp, #8]
 6c6:	f015 0504 	ands.w	r5, r5, #4
 6ca:	bf1f      	itttt	ne
 6cc:	4605      	movne	r5, r0
 6ce:	9a02      	ldrne	r2, [sp, #8]
 6d0:	f022 0204 	bicne.w	r2, r2, #4
 6d4:	f8c6 20d8 	strne.w	r2, [r6, #216]	; 0xd8
 6d8:	2219      	movs	r2, #25
 6da:	e9cd 1200 	strd	r1, r2, [sp]
 6de:	4a8a      	ldr	r2, [pc, #552]	; (908 <alt_clk_divider_set+0x908>)
 6e0:	e7d8      	b.n	694 <alt_clk_divider_set+0x694>
 6e2:	f5b1 7f00 	cmp.w	r1, #512	; 0x200
 6e6:	f63f acd1 	bhi.w	8c <alt_clk_divider_set+0x8c>
 6ea:	203c      	movs	r0, #60	; 0x3c
 6ec:	f7ff fffe 	bl	0 <alt_clk_divider_set>
 6f0:	2801      	cmp	r0, #1
 6f2:	f47f accb 	bne.w	8c <alt_clk_divider_set+0x8c>
 6f6:	4e80      	ldr	r6, [pc, #512]	; (8f8 <alt_clk_divider_set+0x8f8>)
 6f8:	f04f 0c19 	mov.w	ip, #25
 6fc:	1e63      	subs	r3, r4, #1
 6fe:	f8d6 20d8 	ldr.w	r2, [r6, #216]	; 0xd8
 702:	9202      	str	r2, [sp, #8]
 704:	9d02      	ldr	r5, [sp, #8]
 706:	f015 0508 	ands.w	r5, r5, #8
 70a:	bf1f      	itttt	ne
 70c:	4605      	movne	r5, r0
 70e:	9a02      	ldrne	r2, [sp, #8]
 710:	f022 0208 	bicne.w	r2, r2, #8
 714:	f8c6 20d8 	strne.w	r2, [r6, #216]	; 0xd8
 718:	2220      	movs	r2, #32
 71a:	e9cd 2c00 	strd	r2, ip, [sp]
 71e:	4a7b      	ldr	r2, [pc, #492]	; (90c <alt_clk_divider_set+0x90c>)
 720:	e7b8      	b.n	694 <alt_clk_divider_set+0x694>
 722:	2901      	cmp	r1, #1
 724:	d01e      	beq.n	764 <alt_clk_divider_set+0x764>
 726:	2902      	cmp	r1, #2
 728:	f47f acb0 	bne.w	8c <alt_clk_divider_set+0x8c>
 72c:	2001      	movs	r0, #1
 72e:	4a72      	ldr	r2, [pc, #456]	; (8f8 <alt_clk_divider_set+0x8f8>)
 730:	6e13      	ldr	r3, [r2, #96]	; 0x60
 732:	9302      	str	r3, [sp, #8]
 734:	9c02      	ldr	r4, [sp, #8]
 736:	f014 0402 	ands.w	r4, r4, #2
 73a:	bf1f      	itttt	ne
 73c:	2401      	movne	r4, #1
 73e:	9902      	ldrne	r1, [sp, #8]
 740:	f021 0102 	bicne.w	r1, r1, #2
 744:	6611      	strne	r1, [r2, #96]	; 0x60
 746:	211e      	movs	r1, #30
 748:	6e53      	ldr	r3, [r2, #100]	; 0x64
 74a:	f023 0303 	bic.w	r3, r3, #3
 74e:	4303      	orrs	r3, r0
 750:	486f      	ldr	r0, [pc, #444]	; (910 <alt_clk_divider_set+0x910>)
 752:	6653      	str	r3, [r2, #100]	; 0x64
 754:	f7ff fffe 	bl	0 <alt_clk_divider_set>
 758:	2c00      	cmp	r4, #0
 75a:	f43f acad 	beq.w	b8 <alt_clk_divider_set+0xb8>
 75e:	9b02      	ldr	r3, [sp, #8]
 760:	6613      	str	r3, [r2, #96]	; 0x60
 762:	e4a9      	b.n	b8 <alt_clk_divider_set+0xb8>
 764:	2000      	movs	r0, #0
 766:	e7e2      	b.n	72e <alt_clk_divider_set+0x72e>
 768:	2901      	cmp	r1, #1
 76a:	d00f      	beq.n	78c <alt_clk_divider_set+0x78c>
 76c:	2902      	cmp	r1, #2
 76e:	f47f ac8d 	bne.w	8c <alt_clk_divider_set+0x8c>
 772:	2101      	movs	r1, #1
 774:	4a60      	ldr	r2, [pc, #384]	; (8f8 <alt_clk_divider_set+0x8f8>)
 776:	4867      	ldr	r0, [pc, #412]	; (914 <alt_clk_divider_set+0x914>)
 778:	6e53      	ldr	r3, [r2, #100]	; 0x64
 77a:	f023 030c 	bic.w	r3, r3, #12
 77e:	ea43 0381 	orr.w	r3, r3, r1, lsl #2
 782:	211e      	movs	r1, #30
 784:	6653      	str	r3, [r2, #100]	; 0x64
 786:	f7ff fffe 	bl	0 <alt_clk_divider_set>
 78a:	e495      	b.n	b8 <alt_clk_divider_set+0xb8>
 78c:	2100      	movs	r1, #0
 78e:	e7f1      	b.n	774 <alt_clk_divider_set+0x774>
 790:	2901      	cmp	r1, #1
 792:	d01e      	beq.n	7d2 <alt_clk_divider_set+0x7d2>
 794:	2902      	cmp	r1, #2
 796:	d01e      	beq.n	7d6 <alt_clk_divider_set+0x7d6>
 798:	2904      	cmp	r1, #4
 79a:	d01e      	beq.n	7da <alt_clk_divider_set+0x7da>
 79c:	2908      	cmp	r1, #8
 79e:	d01e      	beq.n	7de <alt_clk_divider_set+0x7de>
 7a0:	2910      	cmp	r1, #16
 7a2:	f47f ac73 	bne.w	8c <alt_clk_divider_set+0x8c>
 7a6:	2104      	movs	r1, #4
 7a8:	4a53      	ldr	r2, [pc, #332]	; (8f8 <alt_clk_divider_set+0x8f8>)
 7aa:	6e13      	ldr	r3, [r2, #96]	; 0x60
 7ac:	9302      	str	r3, [sp, #8]
 7ae:	9c02      	ldr	r4, [sp, #8]
 7b0:	f014 0404 	ands.w	r4, r4, #4
 7b4:	bf1f      	itttt	ne
 7b6:	2401      	movne	r4, #1
 7b8:	9b02      	ldrne	r3, [sp, #8]
 7ba:	f023 0304 	bicne.w	r3, r3, #4
 7be:	6613      	strne	r3, [r2, #96]	; 0x60
 7c0:	6e53      	ldr	r3, [r2, #100]	; 0x64
 7c2:	f023 0370 	bic.w	r3, r3, #112	; 0x70
 7c6:	ea43 1301 	orr.w	r3, r3, r1, lsl #4
 7ca:	4852      	ldr	r0, [pc, #328]	; (914 <alt_clk_divider_set+0x914>)
 7cc:	211e      	movs	r1, #30
 7ce:	6653      	str	r3, [r2, #100]	; 0x64
 7d0:	e7c0      	b.n	754 <alt_clk_divider_set+0x754>
 7d2:	2100      	movs	r1, #0
 7d4:	e7e8      	b.n	7a8 <alt_clk_divider_set+0x7a8>
 7d6:	2101      	movs	r1, #1
 7d8:	e7e6      	b.n	7a8 <alt_clk_divider_set+0x7a8>
 7da:	2102      	movs	r1, #2
 7dc:	e7e4      	b.n	7a8 <alt_clk_divider_set+0x7a8>
 7de:	2103      	movs	r1, #3
 7e0:	e7e2      	b.n	7a8 <alt_clk_divider_set+0x7a8>
 7e2:	2901      	cmp	r1, #1
 7e4:	d01b      	beq.n	81e <alt_clk_divider_set+0x81e>
 7e6:	2902      	cmp	r1, #2
 7e8:	d01b      	beq.n	822 <alt_clk_divider_set+0x822>
 7ea:	2904      	cmp	r1, #4
 7ec:	d01b      	beq.n	826 <alt_clk_divider_set+0x826>
 7ee:	2908      	cmp	r1, #8
 7f0:	d01b      	beq.n	82a <alt_clk_divider_set+0x82a>
 7f2:	2910      	cmp	r1, #16
 7f4:	f47f ac4a 	bne.w	8c <alt_clk_divider_set+0x8c>
 7f8:	2104      	movs	r1, #4
 7fa:	4a3f      	ldr	r2, [pc, #252]	; (8f8 <alt_clk_divider_set+0x8f8>)
 7fc:	6e13      	ldr	r3, [r2, #96]	; 0x60
 7fe:	9302      	str	r3, [sp, #8]
 800:	9c02      	ldr	r4, [sp, #8]
 802:	f014 0408 	ands.w	r4, r4, #8
 806:	bf1f      	itttt	ne
 808:	2401      	movne	r4, #1
 80a:	9b02      	ldrne	r3, [sp, #8]
 80c:	f023 0308 	bicne.w	r3, r3, #8
 810:	6613      	strne	r3, [r2, #96]	; 0x60
 812:	6e53      	ldr	r3, [r2, #100]	; 0x64
 814:	f423 7360 	bic.w	r3, r3, #896	; 0x380
 818:	ea43 13c1 	orr.w	r3, r3, r1, lsl #7
 81c:	e7d5      	b.n	7ca <alt_clk_divider_set+0x7ca>
 81e:	2100      	movs	r1, #0
 820:	e7eb      	b.n	7fa <alt_clk_divider_set+0x7fa>
 822:	2101      	movs	r1, #1
 824:	e7e9      	b.n	7fa <alt_clk_divider_set+0x7fa>
 826:	2102      	movs	r1, #2
 828:	e7e7      	b.n	7fa <alt_clk_divider_set+0x7fa>
 82a:	2103      	movs	r1, #3
 82c:	e7e5      	b.n	7fa <alt_clk_divider_set+0x7fa>
 82e:	2901      	cmp	r1, #1
 830:	d019      	beq.n	866 <alt_clk_divider_set+0x866>
 832:	2902      	cmp	r1, #2
 834:	d019      	beq.n	86a <alt_clk_divider_set+0x86a>
 836:	2904      	cmp	r1, #4
 838:	f47f ac28 	bne.w	8c <alt_clk_divider_set+0x8c>
 83c:	2102      	movs	r1, #2
 83e:	4a2e      	ldr	r2, [pc, #184]	; (8f8 <alt_clk_divider_set+0x8f8>)
 840:	4835      	ldr	r0, [pc, #212]	; (918 <alt_clk_divider_set+0x918>)
 842:	6e13      	ldr	r3, [r2, #96]	; 0x60
 844:	9302      	str	r3, [sp, #8]
 846:	9c02      	ldr	r4, [sp, #8]
 848:	f014 0410 	ands.w	r4, r4, #16
 84c:	bf1f      	itttt	ne
 84e:	2401      	movne	r4, #1
 850:	9b02      	ldrne	r3, [sp, #8]
 852:	f023 0310 	bicne.w	r3, r3, #16
 856:	6613      	strne	r3, [r2, #96]	; 0x60
 858:	6e93      	ldr	r3, [r2, #104]	; 0x68
 85a:	f023 0303 	bic.w	r3, r3, #3
 85e:	430b      	orrs	r3, r1
 860:	211e      	movs	r1, #30
 862:	6693      	str	r3, [r2, #104]	; 0x68
 864:	e776      	b.n	754 <alt_clk_divider_set+0x754>
 866:	2100      	movs	r1, #0
 868:	e7e9      	b.n	83e <alt_clk_divider_set+0x83e>
 86a:	2101      	movs	r1, #1
 86c:	e7e7      	b.n	83e <alt_clk_divider_set+0x83e>
 86e:	2902      	cmp	r1, #2
 870:	d020      	beq.n	8b4 <alt_clk_divider_set+0x8b4>
 872:	2904      	cmp	r1, #4
 874:	f47f ac0a 	bne.w	8c <alt_clk_divider_set+0x8c>
 878:	2302      	movs	r3, #2
 87a:	4c1f      	ldr	r4, [pc, #124]	; (8f8 <alt_clk_divider_set+0x8f8>)
 87c:	005b      	lsls	r3, r3, #1
 87e:	f003 030c 	and.w	r3, r3, #12
 882:	4825      	ldr	r0, [pc, #148]	; (918 <alt_clk_divider_set+0x918>)
 884:	6e22      	ldr	r2, [r4, #96]	; 0x60
 886:	9202      	str	r2, [sp, #8]
 888:	9a02      	ldr	r2, [sp, #8]
 88a:	f012 0220 	ands.w	r2, r2, #32
 88e:	bf1f      	itttt	ne
 890:	9a02      	ldrne	r2, [sp, #8]
 892:	f022 0220 	bicne.w	r2, r2, #32
 896:	6622      	strne	r2, [r4, #96]	; 0x60
 898:	2201      	movne	r2, #1
 89a:	6ea1      	ldr	r1, [r4, #104]	; 0x68
 89c:	f021 010c 	bic.w	r1, r1, #12
 8a0:	430b      	orrs	r3, r1
 8a2:	211e      	movs	r1, #30
 8a4:	66a3      	str	r3, [r4, #104]	; 0x68
 8a6:	f7ff fffe 	bl	0 <alt_clk_divider_set>
 8aa:	2a00      	cmp	r2, #0
 8ac:	f43f ac04 	beq.w	b8 <alt_clk_divider_set+0xb8>
 8b0:	9b02      	ldr	r3, [sp, #8]
 8b2:	e44f      	b.n	154 <alt_clk_divider_set+0x154>
 8b4:	2301      	movs	r3, #1
 8b6:	e7e0      	b.n	87a <alt_clk_divider_set+0x87a>
 8b8:	2901      	cmp	r1, #1
 8ba:	d031      	beq.n	920 <alt_clk_divider_set+0x920>
 8bc:	2902      	cmp	r1, #2
 8be:	d031      	beq.n	924 <alt_clk_divider_set+0x924>
 8c0:	2904      	cmp	r1, #4
 8c2:	d031      	beq.n	928 <alt_clk_divider_set+0x928>
 8c4:	2908      	cmp	r1, #8
 8c6:	d031      	beq.n	92c <alt_clk_divider_set+0x92c>
 8c8:	2910      	cmp	r1, #16
 8ca:	f47f abdf 	bne.w	8c <alt_clk_divider_set+0x8c>
 8ce:	2104      	movs	r1, #4
 8d0:	4a09      	ldr	r2, [pc, #36]	; (8f8 <alt_clk_divider_set+0x8f8>)
 8d2:	4812      	ldr	r0, [pc, #72]	; (91c <alt_clk_divider_set+0x91c>)
 8d4:	6e13      	ldr	r3, [r2, #96]	; 0x60
 8d6:	9302      	str	r3, [sp, #8]
 8d8:	9c02      	ldr	r4, [sp, #8]
 8da:	f014 0440 	ands.w	r4, r4, #64	; 0x40
 8de:	bf1f      	itttt	ne
 8e0:	2401      	movne	r4, #1
 8e2:	9b02      	ldrne	r3, [sp, #8]
 8e4:	f023 0340 	bicne.w	r3, r3, #64	; 0x40
 8e8:	6613      	strne	r3, [r2, #96]	; 0x60
 8ea:	6ed3      	ldr	r3, [r2, #108]	; 0x6c
 8ec:	f023 0307 	bic.w	r3, r3, #7
 8f0:	430b      	orrs	r3, r1
 8f2:	211e      	movs	r1, #30
 8f4:	66d3      	str	r3, [r2, #108]	; 0x6c
 8f6:	e72d      	b.n	754 <alt_clk_divider_set+0x754>
 8f8:	ffd04000 	.word	0xffd04000
 8fc:	ffd040cc 	.word	0xffd040cc
 900:	ffd040dc 	.word	0xffd040dc
 904:	ffd040c0 	.word	0xffd040c0
 908:	ffd040d0 	.word	0xffd040d0
 90c:	ffd040d4 	.word	0xffd040d4
 910:	ffd04060 	.word	0xffd04060
 914:	ffd04064 	.word	0xffd04064
 918:	ffd04068 	.word	0xffd04068
 91c:	ffd0406c 	.word	0xffd0406c
 920:	2100      	movs	r1, #0
 922:	e7d5      	b.n	8d0 <alt_clk_divider_set+0x8d0>
 924:	2101      	movs	r1, #1
 926:	e7d3      	b.n	8d0 <alt_clk_divider_set+0x8d0>
 928:	2102      	movs	r1, #2
 92a:	e7d1      	b.n	8d0 <alt_clk_divider_set+0x8d0>
 92c:	2103      	movs	r1, #3
 92e:	e7cf      	b.n	8d0 <alt_clk_divider_set+0x8d0>
 930:	2901      	cmp	r1, #1
 932:	d027      	beq.n	984 <alt_clk_divider_set+0x984>
 934:	2902      	cmp	r1, #2
 936:	d027      	beq.n	988 <alt_clk_divider_set+0x988>
 938:	2904      	cmp	r1, #4
 93a:	d027      	beq.n	98c <alt_clk_divider_set+0x98c>
 93c:	2908      	cmp	r1, #8
 93e:	d027      	beq.n	990 <alt_clk_divider_set+0x990>
 940:	2910      	cmp	r1, #16
 942:	f47f aba3 	bne.w	8c <alt_clk_divider_set+0x8c>
 946:	2104      	movs	r1, #4
 948:	4a8f      	ldr	r2, [pc, #572]	; (b88 <alt_clk_divider_set+0xb88>)
 94a:	f8d2 30a0 	ldr.w	r3, [r2, #160]	; 0xa0
 94e:	9302      	str	r3, [sp, #8]
 950:	9c02      	ldr	r4, [sp, #8]
 952:	f014 0404 	ands.w	r4, r4, #4
 956:	bf1f      	itttt	ne
 958:	2401      	movne	r4, #1
 95a:	9b02      	ldrne	r3, [sp, #8]
 95c:	f023 0304 	bicne.w	r3, r3, #4
 960:	f8c2 30a0 	strne.w	r3, [r2, #160]	; 0xa0
 964:	f8d2 30a4 	ldr.w	r3, [r2, #164]	; 0xa4
 968:	f023 0307 	bic.w	r3, r3, #7
 96c:	430b      	orrs	r3, r1
 96e:	4887      	ldr	r0, [pc, #540]	; (b8c <alt_clk_divider_set+0xb8c>)
 970:	211e      	movs	r1, #30
 972:	f8c2 30a4 	str.w	r3, [r2, #164]	; 0xa4
 976:	f7ff fffe 	bl	0 <alt_clk_divider_set>
 97a:	2c00      	cmp	r4, #0
 97c:	f43f ab9c 	beq.w	b8 <alt_clk_divider_set+0xb8>
 980:	9b02      	ldr	r3, [sp, #8]
 982:	e4a1      	b.n	2c8 <alt_clk_divider_set+0x2c8>
 984:	2100      	movs	r1, #0
 986:	e7df      	b.n	948 <alt_clk_divider_set+0x948>
 988:	2101      	movs	r1, #1
 98a:	e7dd      	b.n	948 <alt_clk_divider_set+0x948>
 98c:	2102      	movs	r1, #2
 98e:	e7db      	b.n	948 <alt_clk_divider_set+0x948>
 990:	2103      	movs	r1, #3
 992:	e7d9      	b.n	948 <alt_clk_divider_set+0x948>
 994:	2901      	cmp	r1, #1
 996:	d01e      	beq.n	9d6 <alt_clk_divider_set+0x9d6>
 998:	2902      	cmp	r1, #2
 99a:	d01e      	beq.n	9da <alt_clk_divider_set+0x9da>
 99c:	2904      	cmp	r1, #4
 99e:	d01e      	beq.n	9de <alt_clk_divider_set+0x9de>
 9a0:	2908      	cmp	r1, #8
 9a2:	d01e      	beq.n	9e2 <alt_clk_divider_set+0x9e2>
 9a4:	2910      	cmp	r1, #16
 9a6:	f47f ab71 	bne.w	8c <alt_clk_divider_set+0x8c>
 9aa:	2104      	movs	r1, #4
 9ac:	4a76      	ldr	r2, [pc, #472]	; (b88 <alt_clk_divider_set+0xb88>)
 9ae:	f8d2 30a0 	ldr.w	r3, [r2, #160]	; 0xa0
 9b2:	9302      	str	r3, [sp, #8]
 9b4:	9c02      	ldr	r4, [sp, #8]
 9b6:	f014 0408 	ands.w	r4, r4, #8
 9ba:	bf1f      	itttt	ne
 9bc:	2401      	movne	r4, #1
 9be:	9b02      	ldrne	r3, [sp, #8]
 9c0:	f023 0308 	bicne.w	r3, r3, #8
 9c4:	f8c2 30a0 	strne.w	r3, [r2, #160]	; 0xa0
 9c8:	f8d2 30a4 	ldr.w	r3, [r2, #164]	; 0xa4
 9cc:	f023 0338 	bic.w	r3, r3, #56	; 0x38
 9d0:	ea43 03c1 	orr.w	r3, r3, r1, lsl #3
 9d4:	e7cb      	b.n	96e <alt_clk_divider_set+0x96e>
 9d6:	2100      	movs	r1, #0
 9d8:	e7e8      	b.n	9ac <alt_clk_divider_set+0x9ac>
 9da:	2101      	movs	r1, #1
 9dc:	e7e6      	b.n	9ac <alt_clk_divider_set+0x9ac>
 9de:	2102      	movs	r1, #2
 9e0:	e7e4      	b.n	9ac <alt_clk_divider_set+0x9ac>
 9e2:	2103      	movs	r1, #3
 9e4:	e7e2      	b.n	9ac <alt_clk_divider_set+0x9ac>
 9e6:	2901      	cmp	r1, #1
 9e8:	d01e      	beq.n	a28 <alt_clk_divider_set+0xa28>
 9ea:	2902      	cmp	r1, #2
 9ec:	d01e      	beq.n	a2c <alt_clk_divider_set+0xa2c>
 9ee:	2904      	cmp	r1, #4
 9f0:	d01e      	beq.n	a30 <alt_clk_divider_set+0xa30>
 9f2:	2908      	cmp	r1, #8
 9f4:	d01e      	beq.n	a34 <alt_clk_divider_set+0xa34>
 9f6:	2910      	cmp	r1, #16
 9f8:	f47f ab48 	bne.w	8c <alt_clk_divider_set+0x8c>
 9fc:	2104      	movs	r1, #4
 9fe:	4a62      	ldr	r2, [pc, #392]	; (b88 <alt_clk_divider_set+0xb88>)
 a00:	f8d2 30a0 	ldr.w	r3, [r2, #160]	; 0xa0
 a04:	9302      	str	r3, [sp, #8]
 a06:	9c02      	ldr	r4, [sp, #8]
 a08:	f014 0410 	ands.w	r4, r4, #16
 a0c:	bf1f      	itttt	ne
 a0e:	2401      	movne	r4, #1
 a10:	9b02      	ldrne	r3, [sp, #8]
 a12:	f023 0310 	bicne.w	r3, r3, #16
 a16:	f8c2 30a0 	strne.w	r3, [r2, #160]	; 0xa0
 a1a:	f8d2 30a4 	ldr.w	r3, [r2, #164]	; 0xa4
 a1e:	f423 73e0 	bic.w	r3, r3, #448	; 0x1c0
 a22:	ea43 1381 	orr.w	r3, r3, r1, lsl #6
 a26:	e7a2      	b.n	96e <alt_clk_divider_set+0x96e>
 a28:	2100      	movs	r1, #0
 a2a:	e7e8      	b.n	9fe <alt_clk_divider_set+0x9fe>
 a2c:	2101      	movs	r1, #1
 a2e:	e7e6      	b.n	9fe <alt_clk_divider_set+0x9fe>
 a30:	2102      	movs	r1, #2
 a32:	e7e4      	b.n	9fe <alt_clk_divider_set+0x9fe>
 a34:	2103      	movs	r1, #3
 a36:	e7e2      	b.n	9fe <alt_clk_divider_set+0x9fe>
 a38:	2901      	cmp	r1, #1
 a3a:	d01e      	beq.n	a7a <alt_clk_divider_set+0xa7a>
 a3c:	2902      	cmp	r1, #2
 a3e:	d01e      	beq.n	a7e <alt_clk_divider_set+0xa7e>
 a40:	2904      	cmp	r1, #4
 a42:	d01e      	beq.n	a82 <alt_clk_divider_set+0xa82>
 a44:	2908      	cmp	r1, #8
 a46:	d01e      	beq.n	a86 <alt_clk_divider_set+0xa86>
 a48:	2910      	cmp	r1, #16
 a4a:	f47f ab1f 	bne.w	8c <alt_clk_divider_set+0x8c>
 a4e:	2104      	movs	r1, #4
 a50:	4a4d      	ldr	r2, [pc, #308]	; (b88 <alt_clk_divider_set+0xb88>)
 a52:	f8d2 30a0 	ldr.w	r3, [r2, #160]	; 0xa0
 a56:	9302      	str	r3, [sp, #8]
 a58:	9c02      	ldr	r4, [sp, #8]
 a5a:	f014 0420 	ands.w	r4, r4, #32
 a5e:	bf1f      	itttt	ne
 a60:	2401      	movne	r4, #1
 a62:	9b02      	ldrne	r3, [sp, #8]
 a64:	f023 0320 	bicne.w	r3, r3, #32
 a68:	f8c2 30a0 	strne.w	r3, [r2, #160]	; 0xa0
 a6c:	f8d2 30a4 	ldr.w	r3, [r2, #164]	; 0xa4
 a70:	f423 6360 	bic.w	r3, r3, #3584	; 0xe00
 a74:	ea43 2341 	orr.w	r3, r3, r1, lsl #9
 a78:	e779      	b.n	96e <alt_clk_divider_set+0x96e>
 a7a:	2100      	movs	r1, #0
 a7c:	e7e8      	b.n	a50 <alt_clk_divider_set+0xa50>
 a7e:	2101      	movs	r1, #1
 a80:	e7e6      	b.n	a50 <alt_clk_divider_set+0xa50>
 a82:	2102      	movs	r1, #2
 a84:	e7e4      	b.n	a50 <alt_clk_divider_set+0xa50>
 a86:	2103      	movs	r1, #3
 a88:	e7e2      	b.n	a50 <alt_clk_divider_set+0xa50>
 a8a:	f1b1 7f80 	cmp.w	r1, #16777216	; 0x1000000
 a8e:	f4bf aafd 	bcs.w	8c <alt_clk_divider_set+0x8c>
 a92:	4d3d      	ldr	r5, [pc, #244]	; (b88 <alt_clk_divider_set+0xb88>)
 a94:	1e4c      	subs	r4, r1, #1
 a96:	f024 447f 	bic.w	r4, r4, #4278190080	; 0xff000000
 a9a:	483d      	ldr	r0, [pc, #244]	; (b90 <alt_clk_divider_set+0xb90>)
 a9c:	211e      	movs	r1, #30
 a9e:	f8d5 30a0 	ldr.w	r3, [r5, #160]	; 0xa0
 aa2:	9302      	str	r3, [sp, #8]
 aa4:	9a02      	ldr	r2, [sp, #8]
 aa6:	f012 0240 	ands.w	r2, r2, #64	; 0x40
 aaa:	bf1f      	itttt	ne
 aac:	2201      	movne	r2, #1
 aae:	9b02      	ldrne	r3, [sp, #8]
 ab0:	f023 0340 	bicne.w	r3, r3, #64	; 0x40
 ab4:	f8c5 30a0 	strne.w	r3, [r5, #160]	; 0xa0
 ab8:	f8d5 30a8 	ldr.w	r3, [r5, #168]	; 0xa8
 abc:	f003 437f 	and.w	r3, r3, #4278190080	; 0xff000000
 ac0:	431c      	orrs	r4, r3
 ac2:	f8c5 40a8 	str.w	r4, [r5, #168]	; 0xa8
 ac6:	f7ff fffe 	bl	0 <alt_clk_divider_set>
 aca:	2a00      	cmp	r2, #0
 acc:	f43f aaf4 	beq.w	b8 <alt_clk_divider_set+0xb8>
 ad0:	9b02      	ldr	r3, [sp, #8]
 ad2:	f8c5 30a0 	str.w	r3, [r5, #160]	; 0xa0
 ad6:	f7ff baef 	b.w	b8 <alt_clk_divider_set+0xb8>
 ada:	4a2b      	ldr	r2, [pc, #172]	; (b88 <alt_clk_divider_set+0xb88>)
 adc:	f8d2 30ac 	ldr.w	r3, [r2, #172]	; 0xac
 ae0:	f3c3 1301 	ubfx	r3, r3, #4, #2
 ae4:	9302      	str	r3, [sp, #8]
 ae6:	1e4b      	subs	r3, r1, #1
 ae8:	f8d2 50a0 	ldr.w	r5, [r2, #160]	; 0xa0
 aec:	9902      	ldr	r1, [sp, #8]
 aee:	f405 6500 	and.w	r5, r5, #2048	; 0x800
 af2:	2901      	cmp	r1, #1
 af4:	d120      	bne.n	b38 <alt_clk_divider_set+0xb38>
 af6:	f5b4 7f00 	cmp.w	r4, #512	; 0x200
 afa:	f4bf aac7 	bcs.w	8c <alt_clk_divider_set+0x8c>
 afe:	b12d      	cbz	r5, b0c <alt_clk_divider_set+0xb0c>
 b00:	f8d2 10a0 	ldr.w	r1, [r2, #160]	; 0xa0
 b04:	f421 6100 	bic.w	r1, r1, #2048	; 0x800
 b08:	f8c2 10a0 	str.w	r1, [r2, #160]	; 0xa0
 b0c:	2208      	movs	r2, #8
 b0e:	2619      	movs	r6, #25
 b10:	e9cd 2600 	strd	r2, r6, [sp]
 b14:	4a1f      	ldr	r2, [pc, #124]	; (b94 <alt_clk_divider_set+0xb94>)
 b16:	4920      	ldr	r1, [pc, #128]	; (b98 <alt_clk_divider_set+0xb98>)
 b18:	4820      	ldr	r0, [pc, #128]	; (b9c <alt_clk_divider_set+0xb9c>)
 b1a:	f7ff fffe 	bl	0 <alt_clk_divider_set>
 b1e:	4610      	mov	r0, r2
 b20:	211e      	movs	r1, #30
 b22:	f7ff fffe 	bl	0 <alt_clk_divider_set>
 b26:	2d00      	cmp	r5, #0
 b28:	f43f aac6 	beq.w	b8 <alt_clk_divider_set+0xb8>
 b2c:	6cd3      	ldr	r3, [r2, #76]	; 0x4c
 b2e:	f443 6300 	orr.w	r3, r3, #2048	; 0x800
 b32:	64d3      	str	r3, [r2, #76]	; 0x4c
 b34:	f7ff bac0 	b.w	b8 <alt_clk_divider_set+0xb8>
 b38:	9902      	ldr	r1, [sp, #8]
 b3a:	2902      	cmp	r1, #2
 b3c:	d120      	bne.n	b80 <alt_clk_divider_set+0xb80>
 b3e:	f5b4 7f00 	cmp.w	r4, #512	; 0x200
 b42:	f4bf aaa3 	bcs.w	8c <alt_clk_divider_set+0x8c>
 b46:	b12d      	cbz	r5, b54 <alt_clk_divider_set+0xb54>
 b48:	f8d2 10a0 	ldr.w	r1, [r2, #160]	; 0xa0
 b4c:	f421 6100 	bic.w	r1, r1, #2048	; 0x800
 b50:	f8c2 10a0 	str.w	r1, [r2, #160]	; 0xa0
 b54:	2004      	movs	r0, #4
 b56:	2219      	movs	r2, #25
 b58:	e9cd 0200 	strd	r0, r2, [sp]
 b5c:	4a10      	ldr	r2, [pc, #64]	; (ba0 <alt_clk_divider_set+0xba0>)
 b5e:	4911      	ldr	r1, [pc, #68]	; (ba4 <alt_clk_divider_set+0xba4>)
 b60:	4811      	ldr	r0, [pc, #68]	; (ba8 <alt_clk_divider_set+0xba8>)
 b62:	f7ff fffe 	bl	0 <alt_clk_divider_set>
 b66:	4610      	mov	r0, r2
 b68:	211e      	movs	r1, #30
 b6a:	f7ff fffe 	bl	0 <alt_clk_divider_set>
 b6e:	2d00      	cmp	r5, #0
 b70:	f43f aaa2 	beq.w	b8 <alt_clk_divider_set+0xb8>
 b74:	6913      	ldr	r3, [r2, #16]
 b76:	f443 6300 	orr.w	r3, r3, #2048	; 0x800
 b7a:	6113      	str	r3, [r2, #16]
 b7c:	f7ff ba9c 	b.w	b8 <alt_clk_divider_set+0xb8>
 b80:	f06f 0008 	mvn.w	r0, #8
 b84:	f7ff ba84 	b.w	90 <alt_clk_divider_set+0x90>
 b88:	ffd04000 	.word	0xffd04000
 b8c:	ffd040a4 	.word	0xffd040a4
 b90:	ffd040a8 	.word	0xffd040a8
 b94:	ffd04054 	.word	0xffd04054
 b98:	ffd04074 	.word	0xffd04074
 b9c:	ffd04040 	.word	0xffd04040
 ba0:	ffd04090 	.word	0xffd04090
 ba4:	ffd040b0 	.word	0xffd040b0
 ba8:	ffd04080 	.word	0xffd04080

Disassembly of section .text.alt_clk_freq_get:

00000000 <alt_clk_freq_get>:
   0:	e92d 41f3 	stmdb	sp!, {r0, r1, r4, r5, r6, r7, r8, lr}
   4:	2300      	movs	r3, #0
   6:	4607      	mov	r7, r0
   8:	460d      	mov	r5, r1
   a:	9301      	str	r3, [sp, #4]
   c:	2900      	cmp	r1, #0
   e:	f000 831a 	beq.w	646 <alt_clk_freq_get+0x646>
  12:	2840      	cmp	r0, #64	; 0x40
  14:	f200 8317 	bhi.w	646 <alt_clk_freq_get+0x646>
  18:	e8df f010 	tbh	[pc, r0, lsl #1]
  1c:	00410158 	.word	0x00410158
  20:	004a0047 	.word	0x004a0047
  24:	03150315 	.word	0x03150315
  28:	03150315 	.word	0x03150315
  2c:	004d0315 	.word	0x004d0315
  30:	007f005c 	.word	0x007f005c
  34:	00990158 	.word	0x00990158
  38:	00990099 	.word	0x00990099
  3c:	00990099 	.word	0x00990099
  40:	00a40099 	.word	0x00a40099
  44:	00b300c9 	.word	0x00b300c9
  48:	00e500da 	.word	0x00e500da
  4c:	00da00f7 	.word	0x00da00f7
  50:	013a0121 	.word	0x013a0121
  54:	01670152 	.word	0x01670152
  58:	015201af 	.word	0x015201af
  5c:	02c30188 	.word	0x02c30188
  60:	01cd026b 	.word	0x01cd026b
  64:	01d901cd 	.word	0x01d901cd
  68:	01d901d9 	.word	0x01d901d9
  6c:	01d901d9 	.word	0x01d901d9
  70:	01f401d9 	.word	0x01f401d9
  74:	02b90207 	.word	0x02b90207
  78:	0288029b 	.word	0x0288029b
  7c:	01dc025f 	.word	0x01dc025f
  80:	021a01e8 	.word	0x021a01e8
  84:	0240022d 	.word	0x0240022d
  88:	02e20253 	.word	0x02e20253
  8c:	02fa02ee 	.word	0x02fa02ee
  90:	03150315 	.word	0x03150315
  94:	02e20306 	.word	0x02e20306
  98:	02fa02ee 	.word	0x02fa02ee
  9c:	0306      	.short	0x0306
  9e:	4ba1      	ldr	r3, [pc, #644]	; (324 <alt_clk_freq_get+0x324>)
  a0:	691e      	ldr	r6, [r3, #16]
  a2:	2400      	movs	r4, #0
  a4:	4623      	mov	r3, r4
  a6:	2701      	movs	r7, #1
  a8:	e24b      	b.n	542 <alt_clk_freq_get+0x542>
  aa:	4b9e      	ldr	r3, [pc, #632]	; (324 <alt_clk_freq_get+0x324>)
  ac:	6a1e      	ldr	r6, [r3, #32]
  ae:	e7f8      	b.n	a2 <alt_clk_freq_get+0xa2>
  b0:	4b9c      	ldr	r3, [pc, #624]	; (324 <alt_clk_freq_get+0x324>)
  b2:	6b1e      	ldr	r6, [r3, #48]	; 0x30
  b4:	e7f5      	b.n	a2 <alt_clk_freq_get+0xa2>
  b6:	2009      	movs	r0, #9
  b8:	f7ff fffe 	bl	0 <alt_clk_freq_get>
  bc:	2801      	cmp	r0, #1
  be:	d104      	bne.n	ca <alt_clk_freq_get+0xca>
  c0:	4b98      	ldr	r3, [pc, #608]	; (324 <alt_clk_freq_get+0x324>)
  c2:	681b      	ldr	r3, [r3, #0]
  c4:	9301      	str	r3, [sp, #4]
  c6:	2000      	movs	r0, #0
  c8:	e012      	b.n	f0 <alt_clk_freq_get+0xf0>
  ca:	a901      	add	r1, sp, #4
  cc:	2009      	movs	r0, #9
  ce:	f7ff fffe 	bl	0 <alt_clk_freq_get>
  d2:	e00d      	b.n	f0 <alt_clk_freq_get+0xf0>
  d4:	f7ff fffe 	bl	0 <alt_clk_freq_get>
  d8:	2801      	cmp	r0, #1
  da:	d11b      	bne.n	114 <alt_clk_freq_get+0x114>
  dc:	4b92      	ldr	r3, [pc, #584]	; (328 <alt_clk_freq_get+0x328>)
  de:	f8d3 0080 	ldr.w	r0, [r3, #128]	; 0x80
  e2:	f3c0 5081 	ubfx	r0, r0, #22, #2
  e6:	9001      	str	r0, [sp, #4]
  e8:	b950      	cbnz	r0, 100 <alt_clk_freq_get+0x100>
  ea:	4b8e      	ldr	r3, [pc, #568]	; (324 <alt_clk_freq_get+0x324>)
  ec:	681b      	ldr	r3, [r3, #0]
  ee:	9301      	str	r3, [sp, #4]
  f0:	9e01      	ldr	r6, [sp, #4]
  f2:	2400      	movs	r4, #0
  f4:	2800      	cmp	r0, #0
  f6:	f000 82a3 	beq.w	640 <alt_clk_freq_get+0x640>
  fa:	b002      	add	sp, #8
  fc:	e8bd 81f0 	ldmia.w	sp!, {r4, r5, r6, r7, r8, pc}
 100:	2801      	cmp	r0, #1
 102:	d102      	bne.n	10a <alt_clk_freq_get+0x10a>
 104:	4b87      	ldr	r3, [pc, #540]	; (324 <alt_clk_freq_get+0x324>)
 106:	691b      	ldr	r3, [r3, #16]
 108:	e7dc      	b.n	c4 <alt_clk_freq_get+0xc4>
 10a:	2802      	cmp	r0, #2
 10c:	d11c      	bne.n	148 <alt_clk_freq_get+0x148>
 10e:	4b85      	ldr	r3, [pc, #532]	; (324 <alt_clk_freq_get+0x324>)
 110:	6a1b      	ldr	r3, [r3, #32]
 112:	e7d7      	b.n	c4 <alt_clk_freq_get+0xc4>
 114:	a901      	add	r1, sp, #4
 116:	200a      	movs	r0, #10
 118:	e7d9      	b.n	ce <alt_clk_freq_get+0xce>
 11a:	200b      	movs	r0, #11
 11c:	f7ff fffe 	bl	0 <alt_clk_freq_get>
 120:	2801      	cmp	r0, #1
 122:	d10e      	bne.n	142 <alt_clk_freq_get+0x142>
 124:	4b80      	ldr	r3, [pc, #512]	; (328 <alt_clk_freq_get+0x328>)
 126:	f8d3 00c0 	ldr.w	r0, [r3, #192]	; 0xc0
 12a:	f3c0 5081 	ubfx	r0, r0, #22, #2
 12e:	9001      	str	r0, [sp, #4]
 130:	2800      	cmp	r0, #0
 132:	d0da      	beq.n	ea <alt_clk_freq_get+0xea>
 134:	2801      	cmp	r0, #1
 136:	d0e5      	beq.n	104 <alt_clk_freq_get+0x104>
 138:	2802      	cmp	r0, #2
 13a:	d105      	bne.n	148 <alt_clk_freq_get+0x148>
 13c:	4b79      	ldr	r3, [pc, #484]	; (324 <alt_clk_freq_get+0x324>)
 13e:	6b1b      	ldr	r3, [r3, #48]	; 0x30
 140:	e7c0      	b.n	c4 <alt_clk_freq_get+0xc4>
 142:	a901      	add	r1, sp, #4
 144:	200b      	movs	r0, #11
 146:	e7c2      	b.n	ce <alt_clk_freq_get+0xce>
 148:	f04f 30ff 	mov.w	r0, #4294967295
 14c:	e7d0      	b.n	f0 <alt_clk_freq_get+0xf0>
 14e:	a901      	add	r1, sp, #4
 150:	2009      	movs	r0, #9
 152:	f7ff fffe 	bl	0 <alt_clk_freq_get>
 156:	2800      	cmp	r0, #0
 158:	d1cf      	bne.n	fa <alt_clk_freq_get+0xfa>
 15a:	4604      	mov	r4, r0
 15c:	9e01      	ldr	r6, [sp, #4]
 15e:	a901      	add	r1, sp, #4
 160:	4638      	mov	r0, r7
 162:	e009      	b.n	178 <alt_clk_freq_get+0x178>
 164:	a901      	add	r1, sp, #4
 166:	2009      	movs	r0, #9
 168:	f7ff fffe 	bl	0 <alt_clk_freq_get>
 16c:	2800      	cmp	r0, #0
 16e:	d1c4      	bne.n	fa <alt_clk_freq_get+0xfa>
 170:	9e01      	ldr	r6, [sp, #4]
 172:	a901      	add	r1, sp, #4
 174:	4604      	mov	r4, r0
 176:	200d      	movs	r0, #13
 178:	f7ff fffe 	bl	0 <alt_clk_freq_get>
 17c:	9f01      	ldr	r7, [sp, #4]
 17e:	2300      	movs	r3, #0
 180:	e065      	b.n	24e <alt_clk_freq_get+0x24e>
 182:	a901      	add	r1, sp, #4
 184:	2009      	movs	r0, #9
 186:	f7ff fffe 	bl	0 <alt_clk_freq_get>
 18a:	2800      	cmp	r0, #0
 18c:	d1b5      	bne.n	fa <alt_clk_freq_get+0xfa>
 18e:	4604      	mov	r4, r0
 190:	a901      	add	r1, sp, #4
 192:	200d      	movs	r0, #13
 194:	9e01      	ldr	r6, [sp, #4]
 196:	f7ff fffe 	bl	0 <alt_clk_freq_get>
 19a:	2800      	cmp	r0, #0
 19c:	d1ad      	bne.n	fa <alt_clk_freq_get+0xfa>
 19e:	9f01      	ldr	r7, [sp, #4]
 1a0:	2015      	movs	r0, #21
 1a2:	f7ff fffe 	bl	0 <alt_clk_freq_get>
 1a6:	9b01      	ldr	r3, [sp, #4]
 1a8:	fba7 7303 	umull	r7, r3, r7, r3
 1ac:	e04f      	b.n	24e <alt_clk_freq_get+0x24e>
 1ae:	a901      	add	r1, sp, #4
 1b0:	2009      	movs	r0, #9
 1b2:	f7ff fffe 	bl	0 <alt_clk_freq_get>
 1b6:	2800      	cmp	r0, #0
 1b8:	d19f      	bne.n	fa <alt_clk_freq_get+0xfa>
 1ba:	4604      	mov	r4, r0
 1bc:	a901      	add	r1, sp, #4
 1be:	200d      	movs	r0, #13
 1c0:	9e01      	ldr	r6, [sp, #4]
 1c2:	f7ff fffe 	bl	0 <alt_clk_freq_get>
 1c6:	2800      	cmp	r0, #0
 1c8:	d197      	bne.n	fa <alt_clk_freq_get+0xfa>
 1ca:	9f01      	ldr	r7, [sp, #4]
 1cc:	2014      	movs	r0, #20
 1ce:	e7e8      	b.n	1a2 <alt_clk_freq_get+0x1a2>
 1d0:	a901      	add	r1, sp, #4
 1d2:	2009      	movs	r0, #9
 1d4:	f7ff fffe 	bl	0 <alt_clk_freq_get>
 1d8:	2800      	cmp	r0, #0
 1da:	d18e      	bne.n	fa <alt_clk_freq_get+0xfa>
 1dc:	4604      	mov	r4, r0
 1de:	9e01      	ldr	r6, [sp, #4]
 1e0:	a901      	add	r1, sp, #4
 1e2:	200e      	movs	r0, #14
 1e4:	e7c8      	b.n	178 <alt_clk_freq_get+0x178>
 1e6:	a901      	add	r1, sp, #4
 1e8:	2009      	movs	r0, #9
 1ea:	f7ff fffe 	bl	0 <alt_clk_freq_get>
 1ee:	2800      	cmp	r0, #0
 1f0:	d183      	bne.n	fa <alt_clk_freq_get+0xfa>
 1f2:	4604      	mov	r4, r0
 1f4:	a901      	add	r1, sp, #4
 1f6:	200e      	movs	r0, #14
 1f8:	9e01      	ldr	r6, [sp, #4]
 1fa:	f7ff fffe 	bl	0 <alt_clk_freq_get>
 1fe:	2800      	cmp	r0, #0
 200:	f47f af7b 	bne.w	fa <alt_clk_freq_get+0xfa>
 204:	9f01      	ldr	r7, [sp, #4]
 206:	2017      	movs	r0, #23
 208:	e7cb      	b.n	1a2 <alt_clk_freq_get+0x1a2>
 20a:	a901      	add	r1, sp, #4
 20c:	2009      	movs	r0, #9
 20e:	f7ff fffe 	bl	0 <alt_clk_freq_get>
 212:	2800      	cmp	r0, #0
 214:	f47f af71 	bne.w	fa <alt_clk_freq_get+0xfa>
 218:	4604      	mov	r4, r0
 21a:	a901      	add	r1, sp, #4
 21c:	200e      	movs	r0, #14
 21e:	9e01      	ldr	r6, [sp, #4]
 220:	f7ff fffe 	bl	0 <alt_clk_freq_get>
 224:	2800      	cmp	r0, #0
 226:	f47f af68 	bne.w	fa <alt_clk_freq_get+0xfa>
 22a:	2017      	movs	r0, #23
 22c:	9f01      	ldr	r7, [sp, #4]
 22e:	f7ff fffe 	bl	0 <alt_clk_freq_get>
 232:	2800      	cmp	r0, #0
 234:	f47f af61 	bne.w	fa <alt_clk_freq_get+0xfa>
 238:	9b01      	ldr	r3, [sp, #4]
 23a:	2018      	movs	r0, #24
 23c:	fba7 7803 	umull	r7, r8, r7, r3
 240:	f7ff fffe 	bl	0 <alt_clk_freq_get>
 244:	9901      	ldr	r1, [sp, #4]
 246:	fba1 7307 	umull	r7, r3, r1, r7
 24a:	fb01 3308 	mla	r3, r1, r8, r3
 24e:	2800      	cmp	r0, #0
 250:	f47f af53 	bne.w	fa <alt_clk_freq_get+0xfa>
 254:	ea57 0203 	orrs.w	r2, r7, r3
 258:	f040 8173 	bne.w	542 <alt_clk_freq_get+0x542>
 25c:	e157      	b.n	50e <alt_clk_freq_get+0x50e>
 25e:	a901      	add	r1, sp, #4
 260:	201a      	movs	r0, #26
 262:	f7ff fffe 	bl	0 <alt_clk_freq_get>
 266:	2800      	cmp	r0, #0
 268:	f47f af47 	bne.w	fa <alt_clk_freq_get+0xfa>
 26c:	4b2e      	ldr	r3, [pc, #184]	; (328 <alt_clk_freq_get+0x328>)
 26e:	9f01      	ldr	r7, [sp, #4]
 270:	6f1b      	ldr	r3, [r3, #112]	; 0x70
 272:	f003 0301 	and.w	r3, r3, #1
 276:	9301      	str	r3, [sp, #4]
 278:	b9bb      	cbnz	r3, 2aa <alt_clk_freq_get+0x2aa>
 27a:	2009      	movs	r0, #9
 27c:	f7ff fffe 	bl	0 <alt_clk_freq_get>
 280:	2800      	cmp	r0, #0
 282:	f47f af3a 	bne.w	fa <alt_clk_freq_get+0xfa>
 286:	4604      	mov	r4, r0
 288:	9e01      	ldr	r6, [sp, #4]
 28a:	a901      	add	r1, sp, #4
 28c:	200e      	movs	r0, #14
 28e:	e788      	b.n	1a2 <alt_clk_freq_get+0x1a2>
 290:	a901      	add	r1, sp, #4
 292:	201b      	movs	r0, #27
 294:	f7ff fffe 	bl	0 <alt_clk_freq_get>
 298:	2800      	cmp	r0, #0
 29a:	f47f af2e 	bne.w	fa <alt_clk_freq_get+0xfa>
 29e:	4b22      	ldr	r3, [pc, #136]	; (328 <alt_clk_freq_get+0x328>)
 2a0:	9f01      	ldr	r7, [sp, #4]
 2a2:	6f1b      	ldr	r3, [r3, #112]	; 0x70
 2a4:	f3c3 0340 	ubfx	r3, r3, #1, #1
 2a8:	e7e5      	b.n	276 <alt_clk_freq_get+0x276>
 2aa:	200a      	movs	r0, #10
 2ac:	f7ff fffe 	bl	0 <alt_clk_freq_get>
 2b0:	2800      	cmp	r0, #0
 2b2:	f47f af22 	bne.w	fa <alt_clk_freq_get+0xfa>
 2b6:	4604      	mov	r4, r0
 2b8:	9e01      	ldr	r6, [sp, #4]
 2ba:	a901      	add	r1, sp, #4
 2bc:	2029      	movs	r0, #41	; 0x29
 2be:	e770      	b.n	1a2 <alt_clk_freq_get+0x1a2>
 2c0:	4b19      	ldr	r3, [pc, #100]	; (328 <alt_clk_freq_get+0x328>)
 2c2:	691b      	ldr	r3, [r3, #16]
 2c4:	9301      	str	r3, [sp, #4]
 2c6:	f013 0801 	ands.w	r8, r3, #1
 2ca:	d002      	beq.n	2d2 <alt_clk_freq_get+0x2d2>
 2cc:	4b15      	ldr	r3, [pc, #84]	; (324 <alt_clk_freq_get+0x324>)
 2ce:	681e      	ldr	r6, [r3, #0]
 2d0:	e6e7      	b.n	a2 <alt_clk_freq_get+0xa2>
 2d2:	a901      	add	r1, sp, #4
 2d4:	2009      	movs	r0, #9
 2d6:	f7ff fffe 	bl	0 <alt_clk_freq_get>
 2da:	2800      	cmp	r0, #0
 2dc:	f47f af0d 	bne.w	fa <alt_clk_freq_get+0xfa>
 2e0:	4604      	mov	r4, r0
 2e2:	9e01      	ldr	r6, [sp, #4]
 2e4:	a901      	add	r1, sp, #4
 2e6:	200f      	movs	r0, #15
 2e8:	e746      	b.n	178 <alt_clk_freq_get+0x178>
 2ea:	4b0f      	ldr	r3, [pc, #60]	; (328 <alt_clk_freq_get+0x328>)
 2ec:	691b      	ldr	r3, [r3, #16]
 2ee:	9301      	str	r3, [sp, #4]
 2f0:	07d9      	lsls	r1, r3, #31
 2f2:	d506      	bpl.n	302 <alt_clk_freq_get+0x302>
 2f4:	4b0b      	ldr	r3, [pc, #44]	; (324 <alt_clk_freq_get+0x324>)
 2f6:	2400      	movs	r4, #0
 2f8:	681e      	ldr	r6, [r3, #0]
 2fa:	9f01      	ldr	r7, [sp, #4]
 2fc:	a901      	add	r1, sp, #4
 2fe:	201d      	movs	r0, #29
 300:	e74f      	b.n	1a2 <alt_clk_freq_get+0x1a2>
 302:	a901      	add	r1, sp, #4
 304:	2009      	movs	r0, #9
 306:	f7ff fffe 	bl	0 <alt_clk_freq_get>
 30a:	2800      	cmp	r0, #0
 30c:	f47f aef5 	bne.w	fa <alt_clk_freq_get+0xfa>
 310:	4604      	mov	r4, r0
 312:	a901      	add	r1, sp, #4
 314:	200f      	movs	r0, #15
 316:	9e01      	ldr	r6, [sp, #4]
 318:	f7ff fffe 	bl	0 <alt_clk_freq_get>
 31c:	2800      	cmp	r0, #0
 31e:	d0ec      	beq.n	2fa <alt_clk_freq_get+0x2fa>
 320:	e6eb      	b.n	fa <alt_clk_freq_get+0xfa>
 322:	bf00      	nop
 324:	00000000 	.word	0x00000000
 328:	ffd04000 	.word	0xffd04000
 32c:	4baa      	ldr	r3, [pc, #680]	; (5d8 <alt_clk_freq_get+0x5d8>)
 32e:	691b      	ldr	r3, [r3, #16]
 330:	9301      	str	r3, [sp, #4]
 332:	07da      	lsls	r2, r3, #31
 334:	d511      	bpl.n	35a <alt_clk_freq_get+0x35a>
 336:	4ba9      	ldr	r3, [pc, #676]	; (5dc <alt_clk_freq_get+0x5dc>)
 338:	2400      	movs	r4, #0
 33a:	681e      	ldr	r6, [r3, #0]
 33c:	2301      	movs	r3, #1
 33e:	9301      	str	r3, [sp, #4]
 340:	a901      	add	r1, sp, #4
 342:	201d      	movs	r0, #29
 344:	9f01      	ldr	r7, [sp, #4]
 346:	f7ff fffe 	bl	0 <alt_clk_freq_get>
 34a:	2800      	cmp	r0, #0
 34c:	f47f aed5 	bne.w	fa <alt_clk_freq_get+0xfa>
 350:	9b01      	ldr	r3, [sp, #4]
 352:	2020      	movs	r0, #32
 354:	fba7 7803 	umull	r7, r8, r7, r3
 358:	e772      	b.n	240 <alt_clk_freq_get+0x240>
 35a:	a901      	add	r1, sp, #4
 35c:	2009      	movs	r0, #9
 35e:	f7ff fffe 	bl	0 <alt_clk_freq_get>
 362:	2800      	cmp	r0, #0
 364:	f47f aec9 	bne.w	fa <alt_clk_freq_get+0xfa>
 368:	4604      	mov	r4, r0
 36a:	a901      	add	r1, sp, #4
 36c:	200f      	movs	r0, #15
 36e:	9e01      	ldr	r6, [sp, #4]
 370:	f7ff fffe 	bl	0 <alt_clk_freq_get>
 374:	2800      	cmp	r0, #0
 376:	d0e3      	beq.n	340 <alt_clk_freq_get+0x340>
 378:	e6bf      	b.n	fa <alt_clk_freq_get+0xfa>
 37a:	4b97      	ldr	r3, [pc, #604]	; (5d8 <alt_clk_freq_get+0x5d8>)
 37c:	691b      	ldr	r3, [r3, #16]
 37e:	9301      	str	r3, [sp, #4]
 380:	07db      	lsls	r3, r3, #31
 382:	d508      	bpl.n	396 <alt_clk_freq_get+0x396>
 384:	4b95      	ldr	r3, [pc, #596]	; (5dc <alt_clk_freq_get+0x5dc>)
 386:	2400      	movs	r4, #0
 388:	681e      	ldr	r6, [r3, #0]
 38a:	2301      	movs	r3, #1
 38c:	9301      	str	r3, [sp, #4]
 38e:	9f01      	ldr	r7, [sp, #4]
 390:	a901      	add	r1, sp, #4
 392:	201e      	movs	r0, #30
 394:	e705      	b.n	1a2 <alt_clk_freq_get+0x1a2>
 396:	a901      	add	r1, sp, #4
 398:	2009      	movs	r0, #9
 39a:	f7ff fffe 	bl	0 <alt_clk_freq_get>
 39e:	2800      	cmp	r0, #0
 3a0:	f47f aeab 	bne.w	fa <alt_clk_freq_get+0xfa>
 3a4:	4604      	mov	r4, r0
 3a6:	a901      	add	r1, sp, #4
 3a8:	200f      	movs	r0, #15
 3aa:	9e01      	ldr	r6, [sp, #4]
 3ac:	f7ff fffe 	bl	0 <alt_clk_freq_get>
 3b0:	2800      	cmp	r0, #0
 3b2:	d0ec      	beq.n	38e <alt_clk_freq_get+0x38e>
 3b4:	e6a1      	b.n	fa <alt_clk_freq_get+0xfa>
 3b6:	a901      	add	r1, sp, #4
 3b8:	2009      	movs	r0, #9
 3ba:	f7ff fffe 	bl	0 <alt_clk_freq_get>
 3be:	2800      	cmp	r0, #0
 3c0:	f47f ae9b 	bne.w	fa <alt_clk_freq_get+0xfa>
 3c4:	4604      	mov	r4, r0
 3c6:	9e01      	ldr	r6, [sp, #4]
 3c8:	a901      	add	r1, sp, #4
 3ca:	2012      	movs	r0, #18
 3cc:	e6d4      	b.n	178 <alt_clk_freq_get+0x178>
 3ce:	a901      	add	r1, sp, #4
 3d0:	200a      	movs	r0, #10
 3d2:	e6be      	b.n	152 <alt_clk_freq_get+0x152>
 3d4:	a901      	add	r1, sp, #4
 3d6:	200a      	movs	r0, #10
 3d8:	f7ff fffe 	bl	0 <alt_clk_freq_get>
 3dc:	2800      	cmp	r0, #0
 3de:	f47f ae8c 	bne.w	fa <alt_clk_freq_get+0xfa>
 3e2:	4604      	mov	r4, r0
 3e4:	9e01      	ldr	r6, [sp, #4]
 3e6:	a901      	add	r1, sp, #4
 3e8:	2025      	movs	r0, #37	; 0x25
 3ea:	e6c5      	b.n	178 <alt_clk_freq_get+0x178>
 3ec:	a901      	add	r1, sp, #4
 3ee:	200a      	movs	r0, #10
 3f0:	f7ff fffe 	bl	0 <alt_clk_freq_get>
 3f4:	2800      	cmp	r0, #0
 3f6:	f47f ae80 	bne.w	fa <alt_clk_freq_get+0xfa>
 3fa:	4604      	mov	r4, r0
 3fc:	9e01      	ldr	r6, [sp, #4]
 3fe:	a901      	add	r1, sp, #4
 400:	2026      	movs	r0, #38	; 0x26
 402:	e6b9      	b.n	178 <alt_clk_freq_get+0x178>
 404:	a901      	add	r1, sp, #4
 406:	200a      	movs	r0, #10
 408:	f7ff fffe 	bl	0 <alt_clk_freq_get>
 40c:	2800      	cmp	r0, #0
 40e:	f47f ae74 	bne.w	fa <alt_clk_freq_get+0xfa>
 412:	a901      	add	r1, sp, #4
 414:	2029      	movs	r0, #41	; 0x29
 416:	9e01      	ldr	r6, [sp, #4]
 418:	f7ff fffe 	bl	0 <alt_clk_freq_get>
 41c:	2800      	cmp	r0, #0
 41e:	f47f ae6c 	bne.w	fa <alt_clk_freq_get+0xfa>
 422:	4604      	mov	r4, r0
 424:	9f01      	ldr	r7, [sp, #4]
 426:	202b      	movs	r0, #43	; 0x2b
 428:	e6bb      	b.n	1a2 <alt_clk_freq_get+0x1a2>
 42a:	a901      	add	r1, sp, #4
 42c:	200a      	movs	r0, #10
 42e:	f7ff fffe 	bl	0 <alt_clk_freq_get>
 432:	2800      	cmp	r0, #0
 434:	f47f ae61 	bne.w	fa <alt_clk_freq_get+0xfa>
 438:	4604      	mov	r4, r0
 43a:	a901      	add	r1, sp, #4
 43c:	2029      	movs	r0, #41	; 0x29
 43e:	9e01      	ldr	r6, [sp, #4]
 440:	f7ff fffe 	bl	0 <alt_clk_freq_get>
 444:	2800      	cmp	r0, #0
 446:	f47f ae58 	bne.w	fa <alt_clk_freq_get+0xfa>
 44a:	9f01      	ldr	r7, [sp, #4]
 44c:	202c      	movs	r0, #44	; 0x2c
 44e:	e6a8      	b.n	1a2 <alt_clk_freq_get+0x1a2>
 450:	a901      	add	r1, sp, #4
 452:	200a      	movs	r0, #10
 454:	f7ff fffe 	bl	0 <alt_clk_freq_get>
 458:	2800      	cmp	r0, #0
 45a:	f47f ae4e 	bne.w	fa <alt_clk_freq_get+0xfa>
 45e:	4604      	mov	r4, r0
 460:	a901      	add	r1, sp, #4
 462:	2029      	movs	r0, #41	; 0x29
 464:	9e01      	ldr	r6, [sp, #4]
 466:	f7ff fffe 	bl	0 <alt_clk_freq_get>
 46a:	2800      	cmp	r0, #0
 46c:	f47f ae45 	bne.w	fa <alt_clk_freq_get+0xfa>
 470:	9f01      	ldr	r7, [sp, #4]
 472:	2033      	movs	r0, #51	; 0x33
 474:	e695      	b.n	1a2 <alt_clk_freq_get+0x1a2>
 476:	a901      	add	r1, sp, #4
 478:	200a      	movs	r0, #10
 47a:	f7ff fffe 	bl	0 <alt_clk_freq_get>
 47e:	2800      	cmp	r0, #0
 480:	f47f ae3b 	bne.w	fa <alt_clk_freq_get+0xfa>
 484:	4604      	mov	r4, r0
 486:	a901      	add	r1, sp, #4
 488:	2029      	movs	r0, #41	; 0x29
 48a:	9e01      	ldr	r6, [sp, #4]
 48c:	f7ff fffe 	bl	0 <alt_clk_freq_get>
 490:	2800      	cmp	r0, #0
 492:	f47f ae32 	bne.w	fa <alt_clk_freq_get+0xfa>
 496:	9f01      	ldr	r7, [sp, #4]
 498:	2034      	movs	r0, #52	; 0x34
 49a:	e682      	b.n	1a2 <alt_clk_freq_get+0x1a2>
 49c:	a901      	add	r1, sp, #4
 49e:	200a      	movs	r0, #10
 4a0:	f7ff fffe 	bl	0 <alt_clk_freq_get>
 4a4:	2800      	cmp	r0, #0
 4a6:	f47f ae28 	bne.w	fa <alt_clk_freq_get+0xfa>
 4aa:	4604      	mov	r4, r0
 4ac:	a901      	add	r1, sp, #4
 4ae:	2029      	movs	r0, #41	; 0x29
 4b0:	9e01      	ldr	r6, [sp, #4]
 4b2:	f7ff fffe 	bl	0 <alt_clk_freq_get>
 4b6:	2800      	cmp	r0, #0
 4b8:	f47f ae1f 	bne.w	fa <alt_clk_freq_get+0xfa>
 4bc:	9f01      	ldr	r7, [sp, #4]
 4be:	2035      	movs	r0, #53	; 0x35
 4c0:	e66f      	b.n	1a2 <alt_clk_freq_get+0x1a2>
 4c2:	a901      	add	r1, sp, #4
 4c4:	200a      	movs	r0, #10
 4c6:	f7ff fffe 	bl	0 <alt_clk_freq_get>
 4ca:	2800      	cmp	r0, #0
 4cc:	f47f ae15 	bne.w	fa <alt_clk_freq_get+0xfa>
 4d0:	4604      	mov	r4, r0
 4d2:	9e01      	ldr	r6, [sp, #4]
 4d4:	a901      	add	r1, sp, #4
 4d6:	202a      	movs	r0, #42	; 0x2a
 4d8:	e64e      	b.n	178 <alt_clk_freq_get+0x178>
 4da:	4b3f      	ldr	r3, [pc, #252]	; (5d8 <alt_clk_freq_get+0x5d8>)
 4dc:	f8d3 40ac 	ldr.w	r4, [r3, #172]	; 0xac
 4e0:	f004 0403 	and.w	r4, r4, #3
 4e4:	9401      	str	r4, [sp, #4]
 4e6:	b914      	cbnz	r4, 4ee <alt_clk_freq_get+0x4ee>
 4e8:	4a3c      	ldr	r2, [pc, #240]	; (5dc <alt_clk_freq_get+0x5dc>)
 4ea:	6a16      	ldr	r6, [r2, #32]
 4ec:	e5da      	b.n	a4 <alt_clk_freq_get+0xa4>
 4ee:	2c01      	cmp	r4, #1
 4f0:	d10b      	bne.n	50a <alt_clk_freq_get+0x50a>
 4f2:	a901      	add	r1, sp, #4
 4f4:	2009      	movs	r0, #9
 4f6:	f7ff fffe 	bl	0 <alt_clk_freq_get>
 4fa:	2800      	cmp	r0, #0
 4fc:	f47f adfd 	bne.w	fa <alt_clk_freq_get+0xfa>
 500:	4604      	mov	r4, r0
 502:	9e01      	ldr	r6, [sp, #4]
 504:	a901      	add	r1, sp, #4
 506:	2011      	movs	r0, #17
 508:	e636      	b.n	178 <alt_clk_freq_get+0x178>
 50a:	2c02      	cmp	r4, #2
 50c:	d002      	beq.n	514 <alt_clk_freq_get+0x514>
 50e:	f04f 30ff 	mov.w	r0, #4294967295
 512:	e5f2      	b.n	fa <alt_clk_freq_get+0xfa>
 514:	a901      	add	r1, sp, #4
 516:	200a      	movs	r0, #10
 518:	f7ff fffe 	bl	0 <alt_clk_freq_get>
 51c:	2800      	cmp	r0, #0
 51e:	f47f adec 	bne.w	fa <alt_clk_freq_get+0xfa>
 522:	4604      	mov	r4, r0
 524:	9e01      	ldr	r6, [sp, #4]
 526:	a901      	add	r1, sp, #4
 528:	2028      	movs	r0, #40	; 0x28
 52a:	e625      	b.n	178 <alt_clk_freq_get+0x178>
 52c:	2704      	movs	r7, #4
 52e:	4a2a      	ldr	r2, [pc, #168]	; (5d8 <alt_clk_freq_get+0x5d8>)
 530:	2300      	movs	r3, #0
 532:	f8d2 40ac 	ldr.w	r4, [r2, #172]	; 0xac
 536:	f3c4 0481 	ubfx	r4, r4, #2, #2
 53a:	9401      	str	r4, [sp, #4]
 53c:	b95c      	cbnz	r4, 556 <alt_clk_freq_get+0x556>
 53e:	4a27      	ldr	r2, [pc, #156]	; (5dc <alt_clk_freq_get+0x5dc>)
 540:	6a16      	ldr	r6, [r2, #32]
 542:	463a      	mov	r2, r7
 544:	4630      	mov	r0, r6
 546:	4621      	mov	r1, r4
 548:	f7ff fffe 	bl	0 <__aeabi_uldivmod>
 54c:	6028      	str	r0, [r5, #0]
 54e:	2000      	movs	r0, #0
 550:	e5d3      	b.n	fa <alt_clk_freq_get+0xfa>
 552:	2701      	movs	r7, #1
 554:	e7eb      	b.n	52e <alt_clk_freq_get+0x52e>
 556:	2c01      	cmp	r4, #1
 558:	d10b      	bne.n	572 <alt_clk_freq_get+0x572>
 55a:	a901      	add	r1, sp, #4
 55c:	2009      	movs	r0, #9
 55e:	f7ff fffe 	bl	0 <alt_clk_freq_get>
 562:	2800      	cmp	r0, #0
 564:	f47f adc9 	bne.w	fa <alt_clk_freq_get+0xfa>
 568:	4604      	mov	r4, r0
 56a:	9e01      	ldr	r6, [sp, #4]
 56c:	a901      	add	r1, sp, #4
 56e:	2011      	movs	r0, #17
 570:	e617      	b.n	1a2 <alt_clk_freq_get+0x1a2>
 572:	2c02      	cmp	r4, #2
 574:	d1cb      	bne.n	50e <alt_clk_freq_get+0x50e>
 576:	a901      	add	r1, sp, #4
 578:	200a      	movs	r0, #10
 57a:	f7ff fffe 	bl	0 <alt_clk_freq_get>
 57e:	2800      	cmp	r0, #0
 580:	f47f adbb 	bne.w	fa <alt_clk_freq_get+0xfa>
 584:	4604      	mov	r4, r0
 586:	9e01      	ldr	r6, [sp, #4]
 588:	a901      	add	r1, sp, #4
 58a:	2028      	movs	r0, #40	; 0x28
 58c:	e609      	b.n	1a2 <alt_clk_freq_get+0x1a2>
 58e:	4b12      	ldr	r3, [pc, #72]	; (5d8 <alt_clk_freq_get+0x5d8>)
 590:	f8d3 40ac 	ldr.w	r4, [r3, #172]	; 0xac
 594:	f3c4 1401 	ubfx	r4, r4, #4, #2
 598:	9401      	str	r4, [sp, #4]
 59a:	2c00      	cmp	r4, #0
 59c:	d0a4      	beq.n	4e8 <alt_clk_freq_get+0x4e8>
 59e:	2c01      	cmp	r4, #1
 5a0:	d10b      	bne.n	5ba <alt_clk_freq_get+0x5ba>
 5a2:	a901      	add	r1, sp, #4
 5a4:	2009      	movs	r0, #9
 5a6:	f7ff fffe 	bl	0 <alt_clk_freq_get>
 5aa:	2800      	cmp	r0, #0
 5ac:	f47f ada5 	bne.w	fa <alt_clk_freq_get+0xfa>
 5b0:	4604      	mov	r4, r0
 5b2:	9e01      	ldr	r6, [sp, #4]
 5b4:	a901      	add	r1, sp, #4
 5b6:	2010      	movs	r0, #16
 5b8:	e5de      	b.n	178 <alt_clk_freq_get+0x178>
 5ba:	2c02      	cmp	r4, #2
 5bc:	d1a7      	bne.n	50e <alt_clk_freq_get+0x50e>
 5be:	a901      	add	r1, sp, #4
 5c0:	200a      	movs	r0, #10
 5c2:	f7ff fffe 	bl	0 <alt_clk_freq_get>
 5c6:	2800      	cmp	r0, #0
 5c8:	f47f ad97 	bne.w	fa <alt_clk_freq_get+0xfa>
 5cc:	4604      	mov	r4, r0
 5ce:	9e01      	ldr	r6, [sp, #4]
 5d0:	a901      	add	r1, sp, #4
 5d2:	2027      	movs	r0, #39	; 0x27
 5d4:	e5d0      	b.n	178 <alt_clk_freq_get+0x178>
 5d6:	bf00      	nop
 5d8:	ffd04000 	.word	0xffd04000
 5dc:	00000000 	.word	0x00000000
 5e0:	a901      	add	r1, sp, #4
 5e2:	200b      	movs	r0, #11
 5e4:	f7ff fffe 	bl	0 <alt_clk_freq_get>
 5e8:	2800      	cmp	r0, #0
 5ea:	f47f ad86 	bne.w	fa <alt_clk_freq_get+0xfa>
 5ee:	4604      	mov	r4, r0
 5f0:	9e01      	ldr	r6, [sp, #4]
 5f2:	a901      	add	r1, sp, #4
 5f4:	2037      	movs	r0, #55	; 0x37
 5f6:	e5bf      	b.n	178 <alt_clk_freq_get+0x178>
 5f8:	a901      	add	r1, sp, #4
 5fa:	200b      	movs	r0, #11
 5fc:	f7ff fffe 	bl	0 <alt_clk_freq_get>
 600:	2800      	cmp	r0, #0
 602:	f47f ad7a 	bne.w	fa <alt_clk_freq_get+0xfa>
 606:	4604      	mov	r4, r0
 608:	9e01      	ldr	r6, [sp, #4]
 60a:	a901      	add	r1, sp, #4
 60c:	2038      	movs	r0, #56	; 0x38
 60e:	e5b3      	b.n	178 <alt_clk_freq_get+0x178>
 610:	a901      	add	r1, sp, #4
 612:	200b      	movs	r0, #11
 614:	f7ff fffe 	bl	0 <alt_clk_freq_get>
 618:	2800      	cmp	r0, #0
 61a:	f47f ad6e 	bne.w	fa <alt_clk_freq_get+0xfa>
 61e:	4604      	mov	r4, r0
 620:	9e01      	ldr	r6, [sp, #4]
 622:	a901      	add	r1, sp, #4
 624:	2039      	movs	r0, #57	; 0x39
 626:	e5a7      	b.n	178 <alt_clk_freq_get+0x178>
 628:	a901      	add	r1, sp, #4
 62a:	200b      	movs	r0, #11
 62c:	f7ff fffe 	bl	0 <alt_clk_freq_get>
 630:	2800      	cmp	r0, #0
 632:	f47f ad62 	bne.w	fa <alt_clk_freq_get+0xfa>
 636:	4604      	mov	r4, r0
 638:	9e01      	ldr	r6, [sp, #4]
 63a:	a901      	add	r1, sp, #4
 63c:	203c      	movs	r0, #60	; 0x3c
 63e:	e59b      	b.n	178 <alt_clk_freq_get+0x178>
 640:	4603      	mov	r3, r0
 642:	2701      	movs	r7, #1
 644:	e77d      	b.n	542 <alt_clk_freq_get+0x542>
 646:	f06f 0008 	mvn.w	r0, #8
 64a:	e556      	b.n	fa <alt_clk_freq_get+0xfa>

Disassembly of section .text.alt_clk_irq_disable:

00000000 <alt_clk_irq_disable>:
   0:	f030 033f 	bics.w	r3, r0, #63	; 0x3f
   4:	bf01      	itttt	eq
   6:	4905      	ldreq	r1, [pc, #20]	; (1c <alt_clk_irq_disable+0x1c>)
   8:	68ca      	ldreq	r2, [r1, #12]
   a:	ea22 0000 	biceq.w	r0, r2, r0
   e:	60c8      	streq	r0, [r1, #12]
  10:	bf0c      	ite	eq
  12:	4618      	moveq	r0, r3
  14:	f06f 0008 	mvnne.w	r0, #8
  18:	4770      	bx	lr
  1a:	bf00      	nop
  1c:	ffd04000 	.word	0xffd04000

Disassembly of section .text.alt_clk_irq_enable:

00000000 <alt_clk_irq_enable>:
   0:	f030 033f 	bics.w	r3, r0, #63	; 0x3f
   4:	bf01      	itttt	eq
   6:	4904      	ldreq	r1, [pc, #16]	; (18 <alt_clk_irq_enable+0x18>)
   8:	68ca      	ldreq	r2, [r1, #12]
   a:	4310      	orreq	r0, r2
   c:	60c8      	streq	r0, [r1, #12]
   e:	bf0c      	ite	eq
  10:	4618      	moveq	r0, r3
  12:	f06f 0008 	mvnne.w	r0, #8
  16:	4770      	bx	lr
  18:	ffd04000 	.word	0xffd04000

Disassembly of section .text.alt_clk_group_cfg_raw_get:

00000000 <alt_clk_group_cfg_raw_get>:
   0:	4b39      	ldr	r3, [pc, #228]	; (e8 <alt_clk_group_cfg_raw_get+0xe8>)
   2:	681a      	ldr	r2, [r3, #0]
   4:	600a      	str	r2, [r1, #0]
   6:	685b      	ldr	r3, [r3, #4]
   8:	604b      	str	r3, [r1, #4]
   a:	6088      	str	r0, [r1, #8]
   c:	b9f8      	cbnz	r0, 4e <alt_clk_group_cfg_raw_get+0x4e>
   e:	4b37      	ldr	r3, [pc, #220]	; (ec <alt_clk_group_cfg_raw_get+0xec>)
  10:	6c1a      	ldr	r2, [r3, #64]	; 0x40
  12:	60ca      	str	r2, [r1, #12]
  14:	6c5a      	ldr	r2, [r3, #68]	; 0x44
  16:	610a      	str	r2, [r1, #16]
  18:	6c9a      	ldr	r2, [r3, #72]	; 0x48
  1a:	614a      	str	r2, [r1, #20]
  1c:	6cda      	ldr	r2, [r3, #76]	; 0x4c
  1e:	618a      	str	r2, [r1, #24]
  20:	6d1a      	ldr	r2, [r3, #80]	; 0x50
  22:	61ca      	str	r2, [r1, #28]
  24:	6d5a      	ldr	r2, [r3, #84]	; 0x54
  26:	620a      	str	r2, [r1, #32]
  28:	6d9a      	ldr	r2, [r3, #88]	; 0x58
  2a:	624a      	str	r2, [r1, #36]	; 0x24
  2c:	6dda      	ldr	r2, [r3, #92]	; 0x5c
  2e:	628a      	str	r2, [r1, #40]	; 0x28
  30:	6e1a      	ldr	r2, [r3, #96]	; 0x60
  32:	62ca      	str	r2, [r1, #44]	; 0x2c
  34:	6e5a      	ldr	r2, [r3, #100]	; 0x64
  36:	630a      	str	r2, [r1, #48]	; 0x30
  38:	6e9a      	ldr	r2, [r3, #104]	; 0x68
  3a:	634a      	str	r2, [r1, #52]	; 0x34
  3c:	6eda      	ldr	r2, [r3, #108]	; 0x6c
  3e:	638a      	str	r2, [r1, #56]	; 0x38
  40:	6f1a      	ldr	r2, [r3, #112]	; 0x70
  42:	63ca      	str	r2, [r1, #60]	; 0x3c
  44:	6f5b      	ldr	r3, [r3, #116]	; 0x74
  46:	640b      	str	r3, [r1, #64]	; 0x40
  48:	6448      	str	r0, [r1, #68]	; 0x44
  4a:	6488      	str	r0, [r1, #72]	; 0x48
  4c:	4770      	bx	lr
  4e:	2801      	cmp	r0, #1
  50:	d12a      	bne.n	a8 <alt_clk_group_cfg_raw_get+0xa8>
  52:	4b26      	ldr	r3, [pc, #152]	; (ec <alt_clk_group_cfg_raw_get+0xec>)
  54:	2000      	movs	r0, #0
  56:	f8d3 2080 	ldr.w	r2, [r3, #128]	; 0x80
  5a:	60ca      	str	r2, [r1, #12]
  5c:	f8d3 2084 	ldr.w	r2, [r3, #132]	; 0x84
  60:	610a      	str	r2, [r1, #16]
  62:	f8d3 2088 	ldr.w	r2, [r3, #136]	; 0x88
  66:	614a      	str	r2, [r1, #20]
  68:	f8d3 208c 	ldr.w	r2, [r3, #140]	; 0x8c
  6c:	618a      	str	r2, [r1, #24]
  6e:	f8d3 2090 	ldr.w	r2, [r3, #144]	; 0x90
  72:	61ca      	str	r2, [r1, #28]
  74:	f8d3 2094 	ldr.w	r2, [r3, #148]	; 0x94
  78:	620a      	str	r2, [r1, #32]
  7a:	f8d3 2098 	ldr.w	r2, [r3, #152]	; 0x98
  7e:	624a      	str	r2, [r1, #36]	; 0x24
  80:	f8d3 209c 	ldr.w	r2, [r3, #156]	; 0x9c
  84:	628a      	str	r2, [r1, #40]	; 0x28
  86:	f8d3 20a0 	ldr.w	r2, [r3, #160]	; 0xa0
  8a:	62ca      	str	r2, [r1, #44]	; 0x2c
  8c:	f8d3 20a4 	ldr.w	r2, [r3, #164]	; 0xa4
  90:	630a      	str	r2, [r1, #48]	; 0x30
  92:	f8d3 20a8 	ldr.w	r2, [r3, #168]	; 0xa8
  96:	634a      	str	r2, [r1, #52]	; 0x34
  98:	f8d3 20ac 	ldr.w	r2, [r3, #172]	; 0xac
  9c:	638a      	str	r2, [r1, #56]	; 0x38
  9e:	f8d3 30b0 	ldr.w	r3, [r3, #176]	; 0xb0
  a2:	63cb      	str	r3, [r1, #60]	; 0x3c
  a4:	6408      	str	r0, [r1, #64]	; 0x40
  a6:	e7cf      	b.n	48 <alt_clk_group_cfg_raw_get+0x48>
  a8:	2802      	cmp	r0, #2
  aa:	d11a      	bne.n	e2 <alt_clk_group_cfg_raw_get+0xe2>
  ac:	4b0f      	ldr	r3, [pc, #60]	; (ec <alt_clk_group_cfg_raw_get+0xec>)
  ae:	2000      	movs	r0, #0
  b0:	f8d3 20c0 	ldr.w	r2, [r3, #192]	; 0xc0
  b4:	60ca      	str	r2, [r1, #12]
  b6:	f8d3 20c4 	ldr.w	r2, [r3, #196]	; 0xc4
  ba:	610a      	str	r2, [r1, #16]
  bc:	f8d3 20c8 	ldr.w	r2, [r3, #200]	; 0xc8
  c0:	614a      	str	r2, [r1, #20]
  c2:	f8d3 20cc 	ldr.w	r2, [r3, #204]	; 0xcc
  c6:	618a      	str	r2, [r1, #24]
  c8:	f8d3 20d0 	ldr.w	r2, [r3, #208]	; 0xd0
  cc:	61ca      	str	r2, [r1, #28]
  ce:	f8d3 20d4 	ldr.w	r2, [r3, #212]	; 0xd4
  d2:	620a      	str	r2, [r1, #32]
  d4:	f8d3 20d8 	ldr.w	r2, [r3, #216]	; 0xd8
  d8:	624a      	str	r2, [r1, #36]	; 0x24
  da:	f8d3 30dc 	ldr.w	r3, [r3, #220]	; 0xdc
  de:	628b      	str	r3, [r1, #40]	; 0x28
  e0:	4770      	bx	lr
  e2:	f06f 0008 	mvn.w	r0, #8
  e6:	4770      	bx	lr
  e8:	ffd08000 	.word	0xffd08000
  ec:	ffd04000 	.word	0xffd04000

Disassembly of section .text.alt_clk_group_cfg_raw_set:

00000000 <alt_clk_group_cfg_raw_set>:
   0:	4b4a      	ldr	r3, [pc, #296]	; (12c <alt_clk_group_cfg_raw_set+0x12c>)
   2:	b570      	push	{r4, r5, r6, lr}
   4:	4604      	mov	r4, r0
   6:	6885      	ldr	r5, [r0, #8]
   8:	681a      	ldr	r2, [r3, #0]
   a:	8843      	ldrh	r3, [r0, #2]
   c:	ebb3 4f12 	cmp.w	r3, r2, lsr #16
  10:	f040 8085 	bne.w	11e <alt_clk_group_cfg_raw_set+0x11e>
  14:	2d00      	cmp	r5, #0
  16:	d037      	beq.n	88 <alt_clk_group_cfg_raw_set+0x88>
  18:	2d01      	cmp	r5, #1
  1a:	d037      	beq.n	8c <alt_clk_group_cfg_raw_set+0x8c>
  1c:	2d02      	cmp	r5, #2
  1e:	f040 8081 	bne.w	124 <alt_clk_group_cfg_raw_set+0x124>
  22:	260b      	movs	r6, #11
  24:	4630      	mov	r0, r6
  26:	f7ff fffe 	bl	0 <alt_clk_group_cfg_raw_set>
  2a:	4601      	mov	r1, r0
  2c:	2800      	cmp	r0, #0
  2e:	d12f      	bne.n	90 <alt_clk_group_cfg_raw_set+0x90>
  30:	4630      	mov	r0, r6
  32:	f7ff fffe 	bl	0 <alt_clk_group_cfg_raw_set>
  36:	2800      	cmp	r0, #0
  38:	d173      	bne.n	122 <alt_clk_group_cfg_raw_set+0x122>
  3a:	2001      	movs	r0, #1
  3c:	2d00      	cmp	r5, #0
  3e:	d129      	bne.n	94 <alt_clk_group_cfg_raw_set+0x94>
  40:	4b3b      	ldr	r3, [pc, #236]	; (130 <alt_clk_group_cfg_raw_set+0x130>)
  42:	68e2      	ldr	r2, [r4, #12]
  44:	f022 42fe 	bic.w	r2, r2, #2130706432	; 0x7f000000
  48:	641a      	str	r2, [r3, #64]	; 0x40
  4a:	6922      	ldr	r2, [r4, #16]
  4c:	645a      	str	r2, [r3, #68]	; 0x44
  4e:	6962      	ldr	r2, [r4, #20]
  50:	649a      	str	r2, [r3, #72]	; 0x48
  52:	69a2      	ldr	r2, [r4, #24]
  54:	64da      	str	r2, [r3, #76]	; 0x4c
  56:	69e2      	ldr	r2, [r4, #28]
  58:	651a      	str	r2, [r3, #80]	; 0x50
  5a:	6a22      	ldr	r2, [r4, #32]
  5c:	655a      	str	r2, [r3, #84]	; 0x54
  5e:	6a62      	ldr	r2, [r4, #36]	; 0x24
  60:	659a      	str	r2, [r3, #88]	; 0x58
  62:	6aa2      	ldr	r2, [r4, #40]	; 0x28
  64:	65da      	str	r2, [r3, #92]	; 0x5c
  66:	6ae2      	ldr	r2, [r4, #44]	; 0x2c
  68:	661a      	str	r2, [r3, #96]	; 0x60
  6a:	6b22      	ldr	r2, [r4, #48]	; 0x30
  6c:	665a      	str	r2, [r3, #100]	; 0x64
  6e:	6b62      	ldr	r2, [r4, #52]	; 0x34
  70:	669a      	str	r2, [r3, #104]	; 0x68
  72:	6ba2      	ldr	r2, [r4, #56]	; 0x38
  74:	66da      	str	r2, [r3, #108]	; 0x6c
  76:	6be2      	ldr	r2, [r4, #60]	; 0x3c
  78:	671a      	str	r2, [r3, #112]	; 0x70
  7a:	2800      	cmp	r0, #0
  7c:	d051      	beq.n	122 <alt_clk_group_cfg_raw_set+0x122>
  7e:	4630      	mov	r0, r6
  80:	e8bd 4070 	ldmia.w	sp!, {r4, r5, r6, lr}
  84:	f7ff bffe 	b.w	0 <alt_clk_group_cfg_raw_set>
  88:	2609      	movs	r6, #9
  8a:	e7cb      	b.n	24 <alt_clk_group_cfg_raw_set+0x24>
  8c:	260a      	movs	r6, #10
  8e:	e7c9      	b.n	24 <alt_clk_group_cfg_raw_set+0x24>
  90:	2000      	movs	r0, #0
  92:	e7d3      	b.n	3c <alt_clk_group_cfg_raw_set+0x3c>
  94:	2d01      	cmp	r5, #1
  96:	d127      	bne.n	e8 <alt_clk_group_cfg_raw_set+0xe8>
  98:	4b25      	ldr	r3, [pc, #148]	; (130 <alt_clk_group_cfg_raw_set+0x130>)
  9a:	68e2      	ldr	r2, [r4, #12]
  9c:	f022 42fe 	bic.w	r2, r2, #2130706432	; 0x7f000000
  a0:	f8c3 2080 	str.w	r2, [r3, #128]	; 0x80
  a4:	6922      	ldr	r2, [r4, #16]
  a6:	f8c3 2084 	str.w	r2, [r3, #132]	; 0x84
  aa:	6962      	ldr	r2, [r4, #20]
  ac:	f8c3 2088 	str.w	r2, [r3, #136]	; 0x88
  b0:	69a2      	ldr	r2, [r4, #24]
  b2:	f8c3 208c 	str.w	r2, [r3, #140]	; 0x8c
  b6:	69e2      	ldr	r2, [r4, #28]
  b8:	f8c3 2090 	str.w	r2, [r3, #144]	; 0x90
  bc:	6a22      	ldr	r2, [r4, #32]
  be:	f8c3 2094 	str.w	r2, [r3, #148]	; 0x94
  c2:	6a62      	ldr	r2, [r4, #36]	; 0x24
  c4:	f8c3 2098 	str.w	r2, [r3, #152]	; 0x98
  c8:	6aa2      	ldr	r2, [r4, #40]	; 0x28
  ca:	f8c3 209c 	str.w	r2, [r3, #156]	; 0x9c
  ce:	6ae2      	ldr	r2, [r4, #44]	; 0x2c
  d0:	f8c3 20a0 	str.w	r2, [r3, #160]	; 0xa0
  d4:	6b22      	ldr	r2, [r4, #48]	; 0x30
  d6:	f8c3 20a4 	str.w	r2, [r3, #164]	; 0xa4
  da:	6b62      	ldr	r2, [r4, #52]	; 0x34
  dc:	f8c3 20a8 	str.w	r2, [r3, #168]	; 0xa8
  e0:	6ba2      	ldr	r2, [r4, #56]	; 0x38
  e2:	f8c3 20ac 	str.w	r2, [r3, #172]	; 0xac
  e6:	e7c8      	b.n	7a <alt_clk_group_cfg_raw_set+0x7a>
  e8:	2d02      	cmp	r5, #2
  ea:	d1c6      	bne.n	7a <alt_clk_group_cfg_raw_set+0x7a>
  ec:	4b10      	ldr	r3, [pc, #64]	; (130 <alt_clk_group_cfg_raw_set+0x130>)
  ee:	68e2      	ldr	r2, [r4, #12]
  f0:	f022 42fe 	bic.w	r2, r2, #2130706432	; 0x7f000000
  f4:	f8c3 20c0 	str.w	r2, [r3, #192]	; 0xc0
  f8:	6922      	ldr	r2, [r4, #16]
  fa:	f8c3 20c4 	str.w	r2, [r3, #196]	; 0xc4
  fe:	6962      	ldr	r2, [r4, #20]
 100:	f8c3 20c8 	str.w	r2, [r3, #200]	; 0xc8
 104:	69a2      	ldr	r2, [r4, #24]
 106:	f8c3 20cc 	str.w	r2, [r3, #204]	; 0xcc
 10a:	69e2      	ldr	r2, [r4, #28]
 10c:	f8c3 20d0 	str.w	r2, [r3, #208]	; 0xd0
 110:	6a22      	ldr	r2, [r4, #32]
 112:	f8c3 20d4 	str.w	r2, [r3, #212]	; 0xd4
 116:	6a62      	ldr	r2, [r4, #36]	; 0x24
 118:	f8c3 20d8 	str.w	r2, [r3, #216]	; 0xd8
 11c:	e7ad      	b.n	7a <alt_clk_group_cfg_raw_set+0x7a>
 11e:	f06f 000e 	mvn.w	r0, #14
 122:	bd70      	pop	{r4, r5, r6, pc}
 124:	f04f 30ff 	mov.w	r0, #4294967295
 128:	e7fb      	b.n	122 <alt_clk_group_cfg_raw_set+0x122>
 12a:	bf00      	nop
 12c:	ffd08000 	.word	0xffd08000
 130:	ffd04000 	.word	0xffd04000

Disassembly of section .text.alt_clk_pll_cntr_maxfreq_recalc:

00000000 <alt_clk_pll_cntr_maxfreq_recalc>:
   0:	b537      	push	{r0, r1, r2, r4, r5, lr}
   2:	460c      	mov	r4, r1
   4:	4605      	mov	r5, r0
   6:	a901      	add	r1, sp, #4
   8:	f7ff fffe 	bl	0 <alt_clk_pll_cntr_maxfreq_recalc>
   c:	b9f8      	cbnz	r0, 4e <alt_clk_pll_cntr_maxfreq_recalc+0x4e>
   e:	f1a5 030d 	sub.w	r3, r5, #13
  12:	2b2f      	cmp	r3, #47	; 0x2f
  14:	d84a      	bhi.n	ac <alt_clk_pll_cntr_maxfreq_recalc+0xac>
  16:	e8df f003 	tbb	[pc, r3]
  1a:	1c18      	.short	0x1c18
  1c:	2825221f 	.word	0x2825221f
  20:	49494949 	.word	0x49494949
  24:	49494949 	.word	0x49494949
  28:	49494949 	.word	0x49494949
  2c:	49494949 	.word	0x49494949
  30:	2e2b4949 	.word	0x2e2b4949
  34:	3a373431 	.word	0x3a373431
  38:	49494949 	.word	0x49494949
  3c:	49494949 	.word	0x49494949
  40:	49494949 	.word	0x49494949
  44:	4943403d 	.word	0x4943403d
  48:	4649      	.short	0x4649
  4a:	9b01      	ldr	r3, [sp, #4]
  4c:	6023      	str	r3, [r4, #0]
  4e:	b003      	add	sp, #12
  50:	bd30      	pop	{r4, r5, pc}
  52:	9b01      	ldr	r3, [sp, #4]
  54:	6063      	str	r3, [r4, #4]
  56:	e7fa      	b.n	4e <alt_clk_pll_cntr_maxfreq_recalc+0x4e>
  58:	9b01      	ldr	r3, [sp, #4]
  5a:	60a3      	str	r3, [r4, #8]
  5c:	e7f7      	b.n	4e <alt_clk_pll_cntr_maxfreq_recalc+0x4e>
  5e:	9b01      	ldr	r3, [sp, #4]
  60:	60e3      	str	r3, [r4, #12]
  62:	e7f4      	b.n	4e <alt_clk_pll_cntr_maxfreq_recalc+0x4e>
  64:	9b01      	ldr	r3, [sp, #4]
  66:	6123      	str	r3, [r4, #16]
  68:	e7f1      	b.n	4e <alt_clk_pll_cntr_maxfreq_recalc+0x4e>
  6a:	9b01      	ldr	r3, [sp, #4]
  6c:	6163      	str	r3, [r4, #20]
  6e:	e7ee      	b.n	4e <alt_clk_pll_cntr_maxfreq_recalc+0x4e>
  70:	9b01      	ldr	r3, [sp, #4]
  72:	61a3      	str	r3, [r4, #24]
  74:	e7eb      	b.n	4e <alt_clk_pll_cntr_maxfreq_recalc+0x4e>
  76:	9b01      	ldr	r3, [sp, #4]
  78:	61e3      	str	r3, [r4, #28]
  7a:	e7e8      	b.n	4e <alt_clk_pll_cntr_maxfreq_recalc+0x4e>
  7c:	9b01      	ldr	r3, [sp, #4]
  7e:	6223      	str	r3, [r4, #32]
  80:	e7e5      	b.n	4e <alt_clk_pll_cntr_maxfreq_recalc+0x4e>
  82:	9b01      	ldr	r3, [sp, #4]
  84:	6263      	str	r3, [r4, #36]	; 0x24
  86:	e7e2      	b.n	4e <alt_clk_pll_cntr_maxfreq_recalc+0x4e>
  88:	9b01      	ldr	r3, [sp, #4]
  8a:	62a3      	str	r3, [r4, #40]	; 0x28
  8c:	e7df      	b.n	4e <alt_clk_pll_cntr_maxfreq_recalc+0x4e>
  8e:	9b01      	ldr	r3, [sp, #4]
  90:	62e3      	str	r3, [r4, #44]	; 0x2c
  92:	e7dc      	b.n	4e <alt_clk_pll_cntr_maxfreq_recalc+0x4e>
  94:	9b01      	ldr	r3, [sp, #4]
  96:	6323      	str	r3, [r4, #48]	; 0x30
  98:	e7d9      	b.n	4e <alt_clk_pll_cntr_maxfreq_recalc+0x4e>
  9a:	9b01      	ldr	r3, [sp, #4]
  9c:	6363      	str	r3, [r4, #52]	; 0x34
  9e:	e7d6      	b.n	4e <alt_clk_pll_cntr_maxfreq_recalc+0x4e>
  a0:	9b01      	ldr	r3, [sp, #4]
  a2:	63a3      	str	r3, [r4, #56]	; 0x38
  a4:	e7d3      	b.n	4e <alt_clk_pll_cntr_maxfreq_recalc+0x4e>
  a6:	9b01      	ldr	r3, [sp, #4]
  a8:	63e3      	str	r3, [r4, #60]	; 0x3c
  aa:	e7d0      	b.n	4e <alt_clk_pll_cntr_maxfreq_recalc+0x4e>
  ac:	f06f 0008 	mvn.w	r0, #8
  b0:	e7cd      	b.n	4e <alt_clk_pll_cntr_maxfreq_recalc+0x4e>

Disassembly of section .text.alt_clk_clkmgr_reinit:

00000000 <alt_clk_clkmgr_reinit>:
   0:	b510      	push	{r4, lr}
   2:	200d      	movs	r0, #13
   4:	4948      	ldr	r1, [pc, #288]	; (128 <alt_clk_clkmgr_reinit+0x128>)
   6:	f7ff fffe 	bl	0 <alt_clk_clkmgr_reinit>
   a:	4947      	ldr	r1, [pc, #284]	; (128 <alt_clk_clkmgr_reinit+0x128>)
   c:	4604      	mov	r4, r0
   e:	200e      	movs	r0, #14
  10:	f7ff fffe 	bl	0 <alt_clk_clkmgr_reinit>
  14:	2800      	cmp	r0, #0
  16:	f040 8083 	bne.w	120 <alt_clk_clkmgr_reinit+0x120>
  1a:	3c00      	subs	r4, #0
  1c:	bf18      	it	ne
  1e:	2401      	movne	r4, #1
  20:	4264      	negs	r4, r4
  22:	4941      	ldr	r1, [pc, #260]	; (128 <alt_clk_clkmgr_reinit+0x128>)
  24:	200f      	movs	r0, #15
  26:	f7ff fffe 	bl	0 <alt_clk_clkmgr_reinit>
  2a:	2800      	cmp	r0, #0
  2c:	493e      	ldr	r1, [pc, #248]	; (128 <alt_clk_clkmgr_reinit+0x128>)
  2e:	f04f 0010 	mov.w	r0, #16
  32:	bf18      	it	ne
  34:	f04f 34ff 	movne.w	r4, #4294967295
  38:	f7ff fffe 	bl	0 <alt_clk_clkmgr_reinit>
  3c:	2800      	cmp	r0, #0
  3e:	493a      	ldr	r1, [pc, #232]	; (128 <alt_clk_clkmgr_reinit+0x128>)
  40:	f04f 0011 	mov.w	r0, #17
  44:	bf18      	it	ne
  46:	f04f 34ff 	movne.w	r4, #4294967295
  4a:	f7ff fffe 	bl	0 <alt_clk_clkmgr_reinit>
  4e:	2800      	cmp	r0, #0
  50:	4935      	ldr	r1, [pc, #212]	; (128 <alt_clk_clkmgr_reinit+0x128>)
  52:	f04f 0012 	mov.w	r0, #18
  56:	bf18      	it	ne
  58:	f04f 34ff 	movne.w	r4, #4294967295
  5c:	f7ff fffe 	bl	0 <alt_clk_clkmgr_reinit>
  60:	2800      	cmp	r0, #0
  62:	4931      	ldr	r1, [pc, #196]	; (128 <alt_clk_clkmgr_reinit+0x128>)
  64:	f04f 0025 	mov.w	r0, #37	; 0x25
  68:	bf18      	it	ne
  6a:	f04f 34ff 	movne.w	r4, #4294967295
  6e:	f7ff fffe 	bl	0 <alt_clk_clkmgr_reinit>
  72:	2800      	cmp	r0, #0
  74:	492c      	ldr	r1, [pc, #176]	; (128 <alt_clk_clkmgr_reinit+0x128>)
  76:	f04f 0026 	mov.w	r0, #38	; 0x26
  7a:	bf18      	it	ne
  7c:	f04f 34ff 	movne.w	r4, #4294967295
  80:	f7ff fffe 	bl	0 <alt_clk_clkmgr_reinit>
  84:	2800      	cmp	r0, #0
  86:	4928      	ldr	r1, [pc, #160]	; (128 <alt_clk_clkmgr_reinit+0x128>)
  88:	f04f 0027 	mov.w	r0, #39	; 0x27
  8c:	bf18      	it	ne
  8e:	f04f 34ff 	movne.w	r4, #4294967295
  92:	f7ff fffe 	bl	0 <alt_clk_clkmgr_reinit>
  96:	2800      	cmp	r0, #0
  98:	4923      	ldr	r1, [pc, #140]	; (128 <alt_clk_clkmgr_reinit+0x128>)
  9a:	f04f 0028 	mov.w	r0, #40	; 0x28
  9e:	bf18      	it	ne
  a0:	f04f 34ff 	movne.w	r4, #4294967295
  a4:	f7ff fffe 	bl	0 <alt_clk_clkmgr_reinit>
  a8:	2800      	cmp	r0, #0
  aa:	491f      	ldr	r1, [pc, #124]	; (128 <alt_clk_clkmgr_reinit+0x128>)
  ac:	f04f 0029 	mov.w	r0, #41	; 0x29
  b0:	bf18      	it	ne
  b2:	f04f 34ff 	movne.w	r4, #4294967295
  b6:	f7ff fffe 	bl	0 <alt_clk_clkmgr_reinit>
  ba:	2800      	cmp	r0, #0
  bc:	491a      	ldr	r1, [pc, #104]	; (128 <alt_clk_clkmgr_reinit+0x128>)
  be:	f04f 002a 	mov.w	r0, #42	; 0x2a
  c2:	bf18      	it	ne
  c4:	f04f 34ff 	movne.w	r4, #4294967295
  c8:	f7ff fffe 	bl	0 <alt_clk_clkmgr_reinit>
  cc:	2800      	cmp	r0, #0
  ce:	4916      	ldr	r1, [pc, #88]	; (128 <alt_clk_clkmgr_reinit+0x128>)
  d0:	f04f 0037 	mov.w	r0, #55	; 0x37
  d4:	bf18      	it	ne
  d6:	f04f 34ff 	movne.w	r4, #4294967295
  da:	f7ff fffe 	bl	0 <alt_clk_clkmgr_reinit>
  de:	2800      	cmp	r0, #0
  e0:	4911      	ldr	r1, [pc, #68]	; (128 <alt_clk_clkmgr_reinit+0x128>)
  e2:	f04f 0038 	mov.w	r0, #56	; 0x38
  e6:	bf18      	it	ne
  e8:	f04f 34ff 	movne.w	r4, #4294967295
  ec:	f7ff fffe 	bl	0 <alt_clk_clkmgr_reinit>
  f0:	2800      	cmp	r0, #0
  f2:	490d      	ldr	r1, [pc, #52]	; (128 <alt_clk_clkmgr_reinit+0x128>)
  f4:	f04f 0039 	mov.w	r0, #57	; 0x39
  f8:	bf18      	it	ne
  fa:	f04f 34ff 	movne.w	r4, #4294967295
  fe:	f7ff fffe 	bl	0 <alt_clk_clkmgr_reinit>
 102:	2800      	cmp	r0, #0
 104:	4908      	ldr	r1, [pc, #32]	; (128 <alt_clk_clkmgr_reinit+0x128>)
 106:	f04f 003c 	mov.w	r0, #60	; 0x3c
 10a:	bf18      	it	ne
 10c:	f04f 34ff 	movne.w	r4, #4294967295
 110:	f7ff fffe 	bl	0 <alt_clk_clkmgr_reinit>
 114:	2800      	cmp	r0, #0
 116:	bf0c      	ite	eq
 118:	4620      	moveq	r0, r4
 11a:	f04f 30ff 	movne.w	r0, #4294967295
 11e:	bd10      	pop	{r4, pc}
 120:	f04f 34ff 	mov.w	r4, #4294967295
 124:	e77d      	b.n	22 <alt_clk_clkmgr_reinit+0x22>
 126:	bf00      	nop
 128:	00000000 	.word	0x00000000

Disassembly of section .text.alt_clk_clkmgr_uninit:

00000000 <alt_clk_clkmgr_uninit>:
   0:	2000      	movs	r0, #0
   2:	4770      	bx	lr
